(lp0
(dp1
S'title'
p2
S'Happy New Year!'
p3
sS'food'
p4
I00
sS'notes'
p5
S''
p6
sS'creation_time'
p7
S'2013-11-10'
p8
sS'end_time'
p9
S'2013-01-02'
p10
sS'start_time'
p11
S'2013-01-01'
p12
sa(dp13
g2
S'Tuesday Lunch - 11:30a-1p @ Catholic Newman Center'
p14
sg4
I00
sg5
g6
sg7
S'2013-11-10'
p15
sg9
S'2013-01-01T12:30:00-06:00'
p16
sg11
S'2013-01-01T11:30:00-06:00'
p17
sa(dp18
g2
S'Cabinet Meeting - 5p @ ACAC'
p19
sg4
I00
sg5
g6
sg7
S'2013-11-10'
p20
sg9
S'2013-01-01T17:45:00-06:00'
p21
sg11
S'2013-01-01T17:00:00-06:00'
p22
sS'location'
p23
S'ACAC '
p24
sa(dp25
g2
S'SA Senate Meeting - 9p @ John Rogers'
p26
sg4
I00
sg5
g6
sg7
S'2013-11-10'
p27
sg9
S'2013-01-01T22:00:00-06:00'
p28
sg11
S'2013-01-01T21:00:00-06:00'
p29
sa(dp30
g2
S"Men's Basketball vs Buffalo-7:05p @ Reynolds Center"
p31
sg4
I00
sg5
g6
sg7
S'2013-11-10'
p32
sg9
S'2013-01-02T20:00:00-06:00'
p33
sg11
S'2013-01-02T19:00:00-06:00'
p34
sa(dp35
g2
S"Women's Basketball vs Langston-7p @ Reynolds Center"
p36
sg4
I00
sg5
g6
sg7
S'2013-11-10'
p37
sg9
S'2013-01-03T20:00:00-06:00'
p38
sg11
S'2013-01-03T19:00:00-06:00'
p39
sa(dp40
g2
S'Tuesday Lunch - 11:30a-1p @ Catholic Newman Center'
p41
sg4
I00
sg5
g6
sg7
S'2013-11-10'
p42
sg9
S'2013-01-08T12:30:00-06:00'
p43
sg11
S'2013-01-08T11:30:00-06:00'
p44
sa(dp45
g2
S'Cabinet Meeting - 5p @ ACAC'
p46
sg4
I00
sg5
g6
sg7
S'2013-11-10'
p47
sg9
S'2013-01-08T17:45:00-06:00'
p48
sg11
S'2013-01-08T17:00:00-06:00'
p49
sg23
S'ACAC '
p50
sa(dp51
g2
S'SA Senate Meeting - 9p @ John Rogers'
p52
sg4
I00
sg5
g6
sg7
S'2013-11-10'
p53
sg9
S'2013-01-08T22:00:00-06:00'
p54
sg11
S'2013-01-08T21:00:00-06:00'
p55
sa(dp56
g2
S"Women's Basketball vs UTEP-7p @ Reynolds Center"
p57
sg4
I00
sg5
g6
sg7
S'2013-11-10'
p58
sg9
S'2013-01-09T20:00:00-06:00'
p59
sg11
S'2013-01-09T19:00:00-06:00'
p60
sa(dp61
g2
S"Men's Basketball vs Rice-5:30p @ Reynolds Center"
p62
sg4
I00
sg5
g6
sg7
S'2013-11-10'
p63
sg9
S'2013-01-12T18:30:00-06:00'
p64
sg11
S'2013-01-12T17:30:00-06:00'
p65
sa(dp66
g2
S'Mass-8p @ Catholic Newman Center'
p67
sg4
I00
sg5
g6
sg7
S'2013-11-10'
p68
sg9
S'2013-01-13T21:00:00-06:00'
p69
sg11
S'2013-01-13T20:00:00-06:00'
p70
sa(dp71
g2
S'First Day of Classes'
p72
sg4
I00
sg5
g6
sg7
S'2013-11-10'
p73
sg9
S'2013-01-15'
p74
sg11
S'2013-01-14'
p75
sa(dp76
g2
S'Free Lunch - 11am-1p @ BCM'
p77
sg4
I00
sg5
g6
sg7
S'2013-11-10'
p78
sg9
S'2013-01-14T13:00:00-06:00'
p79
sg11
S'2013-01-14T11:00:00-06:00'
p80
sa(dp81
g2
S'Tuesday Lunch - 11:30a-1p @ Catholic Newman Center'
p82
sg4
I00
sg5
g6
sg7
S'2013-11-10'
p83
sg9
S'2013-01-15T12:30:00-06:00'
p84
sg11
S'2013-01-15T11:30:00-06:00'
p85
sa(dp86
g2
S'Cabinet Meeting - 5p @ ACAC'
p87
sg4
I00
sg5
g6
sg7
S'2013-11-10'
p88
sg9
S'2013-01-15T17:45:00-06:00'
p89
sg11
S'2013-01-15T17:00:00-06:00'
p90
sg23
S'ACAC '
p91
sa(dp92
g2
S'SA Senate Meeting - 9p @ John Rogers'
p93
sg4
I00
sg5
g6
sg7
S'2013-11-10'
p94
sg9
S'2013-01-15T22:00:00-06:00'
p95
sg11
S'2013-01-15T21:00:00-06:00'
p96
sa(dp97
g2
S'Fellowship of Christian Athletes-9p @ Case Center'
p98
sg4
I00
sg5
g6
sg7
S'2013-11-10'
p99
sg9
S'2013-01-15T22:00:00-06:00'
p100
sg11
S'2013-01-15T21:00:00-06:00'
p101
sa(dp102
g2
S'WoW - Noon @ Sharp Chapel'
p103
sg4
I00
sg5
g6
sg7
S'2013-11-10'
p104
sg9
S'2013-01-16T13:00:00-06:00'
p105
sg11
S'2013-01-16T12:00:00-06:00'
p106
sa(dp107
g2
S'Veggie Lunch - Noon @ Little Blue House'
p108
sg4
I00
sg5
g6
sg7
S'2013-11-10'
p109
sg9
S'2013-01-16T13:00:00-06:00'
p110
sg11
S'2013-01-16T12:00:00-06:00'
p111
sa(dp112
g2
S'TUSSLHA Monthly Meeting - 12:15p @ Mary Chapman Center'
p113
sg4
I00
sg5
g6
sg7
S'2013-11-10'
p114
sg9
S'2013-01-16T13:00:00-06:00'
p115
sg11
S'2013-01-16T12:00:00-06:00'
p116
sa(dp117
g2
S'STUMO - 5:30p @ Mayo SAC'
p118
sg4
I00
sg5
g6
sg7
S'2013-11-10'
p119
sg9
S'2013-01-16T18:30:00-06:00'
p120
sg11
S'2013-01-16T17:30:00-06:00'
p121
sa(dp122
g2
S"Men's Basketball vs UTEP-7:05p @ Reynolds Center"
p123
sg4
I00
sg5
g6
sg7
S'2013-11-10'
p124
sg9
S'2013-01-16T20:00:00-06:00'
p125
sg11
S'2013-01-16T19:00:00-06:00'
p126
sa(dp127
g2
S"Delta Sigma Theta Founder's Day Brunch-11:30a-1p @ Sharp Chapel"
p128
sg4
I00
sg5
g6
sg7
S'2013-11-10'
p129
sg9
S'2013-01-17T12:30:00-06:00'
p130
sg11
S'2013-01-17T11:30:00-06:00'
p131
sa(dp132
g2
S'FIL - Noon @ Wesley'
p133
sg4
I00
sg5
g6
sg7
S'2013-11-10'
p134
sg9
S'2013-01-17T13:00:00-06:00'
p135
sg11
S'2013-01-17T12:00:00-06:00'
p136
sa(dp137
g2
S'International Students Welcome Party - 7pm @ ACAC (Great Hall B)'
p138
sg4
I00
sg5
g6
sg7
S'2013-11-10'
p139
sg9
S'2013-01-17T17:45:00-06:00'
p140
sg11
S'2013-01-17T16:45:00-06:00'
p141
sa(dp142
g2
S"Women's Basketball vs Marshall-7p @ Reynolds Center"
p143
sg4
I00
sg5
g6
sg7
S'2013-11-10'
p144
sg9
S'2013-01-17T20:00:00-06:00'
p145
sg11
S'2013-01-17T19:00:00-06:00'
p146
sa(dp147
g2
S'Friday Noon Lunch - Noon @ Wesley'
p148
sg4
I00
sg5
g6
sg7
S'2013-11-10'
p149
sg9
S'2013-01-18T13:00:00-06:00'
p150
sg11
S'2013-01-18T12:00:00-06:00'
p151
sa(dp152
g2
S'Inauguration Day'
p153
sg4
I00
sg5
g6
sg7
S'2013-11-10'
p154
sg9
S'2013-01-21'
p155
sg11
S'2013-01-20'
p156
sa(dp157
g2
S'Mass-11a & 8p @ Catholic Newman Center'
p158
sg4
I00
sg5
g6
sg7
S'2013-11-10'
p159
sg9
S'2013-01-20T21:00:00-06:00'
p160
sg11
S'2013-01-20T20:00:00-06:00'
p161
sa(dp162
g2
S'Birthday of Martin Luther King, Jr. - No Classes'
p163
sg4
I00
sg5
g6
sg7
S'2013-11-10'
p164
sg9
S'2013-01-22'
p165
sg11
S'2013-01-21'
p166
sa(dp167
g2
S'Junior Visit Day @ LPC'
p168
sg4
I00
sg5
g6
sg7
S'2013-11-10'
p169
sg9
S'2013-01-22'
p170
sg11
S'2013-01-21'
p171
sa(dp172
g2
S'Free Lunch - 11am-1p @ BCM'
p173
sg4
I00
sg5
g6
sg7
S'2013-11-10'
p174
sg9
S'2013-01-21T13:00:00-06:00'
p175
sg11
S'2013-01-21T11:00:00-06:00'
p176
sa(dp177
g2
S'Tuesday Lunch - 11:30a-1p @ Catholic Newman Center'
p178
sg4
I00
sg5
g6
sg7
S'2013-11-10'
p179
sg9
S'2013-01-22T12:30:00-06:00'
p180
sg11
S'2013-01-22T11:30:00-06:00'
p181
sa(dp182
g2
S'Cabinet Meeting - 5p @ ACAC'
p183
sg4
I00
sg5
g6
sg7
S'2013-11-10'
p184
sg9
S'2013-01-22T17:45:00-06:00'
p185
sg11
S'2013-01-22T17:00:00-06:00'
p186
sg23
S'ACAC '
p187
sa(dp188
g2
S'SA Senate Meeting - 9p @ John Rogers'
p189
sg4
I00
sg5
g6
sg7
S'2013-11-10'
p190
sg9
S'2013-01-22T22:00:00-06:00'
p191
sg11
S'2013-01-22T21:00:00-06:00'
p192
sa(dp193
g2
S'Fellowship of Christian Athletes-9p @ Case Center'
p194
sg4
I00
sg5
g6
sg7
S'2013-11-10'
p195
sg9
S'2013-01-22T22:00:00-06:00'
p196
sg11
S'2013-01-22T21:00:00-06:00'
p197
sa(dp198
g2
S'Allocations Info Session - 4p @ ACAC Chouteau'
p199
sg4
I00
sg5
g6
sg7
S'2013-11-10'
p200
sg9
S'2013-01-23T17:00:00-06:00'
p201
sg11
S'2013-01-23T16:00:00-06:00'
p202
sg23
S'ACAC Chouteau'
p203
sa(dp204
g2
S'Freethinkers at TU meeting - @ ACAC Gallery'
p205
sg4
I00
sg5
g6
sg7
S'2013-11-10'
p206
sg9
S'2013-01-23T19:00:00-06:00'
p207
sg11
S'2013-01-23T18:00:00-06:00'
p208
sa(dp209
g2
S'English Corner Tutoring - 7:30p @ ACAC'
p210
sg4
I00
sg5
g6
sg7
S'2013-11-10'
p211
sg9
S'2013-01-23T19:30:00-06:00'
p212
sg11
S'2013-01-23T19:15:00-06:00'
p213
sa(dp214
g2
S'FIL - Noon @ Wesley'
p215
sg4
I00
sg5
g6
sg7
S'2013-11-10'
p216
sg9
S'2013-01-24T13:00:00-06:00'
p217
sg11
S'2013-01-24T12:00:00-06:00'
p218
sa(dp219
g2
S"Women's Basketball vs UCF-7p @ Reynolds Center"
p220
sg4
I00
sg5
g6
sg7
S'2013-11-10'
p221
sg9
S'2013-01-24T20:00:00-06:00'
p222
sg11
S'2013-01-24T19:00:00-06:00'
p223
sa(dp224
g2
S'Allocations Info Session'
p225
sg4
I00
sg5
g6
sg7
S'2013-11-10'
p226
sg9
S'2013-01-24T22:00:00-06:00'
p227
sg11
S'2013-01-24T21:00:00-06:00'
p228
sg23
S'ACAC Chouteau'
p229
sa(dp230
g2
S'IEEE Meeting-Noon @ Kep U1'
p231
sg4
I00
sg5
g6
sg7
S'2013-11-10'
p232
sg9
S'2013-01-25T13:00:00-06:00'
p233
sg11
S'2013-01-25T12:00:00-06:00'
p234
sa(dp235
g2
S'Friday Noon Lunch - Noon @ Wesley'
p236
sg4
I00
sg5
g6
sg7
S'2013-11-10'
p237
sg9
S'2013-01-25T13:00:00-06:00'
p238
sg11
S'2013-01-25T12:00:00-06:00'
p239
sa(dp240
g2
S'TU Leadership Experience (TULE)-10a @ ACAC'
p241
sg4
I00
sg5
g6
sg7
S'2013-11-10'
p242
sg9
S'2013-01-26T13:00:00-06:00'
p243
sg11
S'2013-01-26T10:00:00-06:00'
p244
sa(dp245
g2
S'EWB Volleyball Fundraiser-10a @ Collins Fitness Center'
p246
sg4
I00
sg5
g6
sg7
S'2013-11-10'
p247
sg9
S'2013-01-26T13:00:00-06:00'
p248
sg11
S'2013-01-26T10:00:00-06:00'
p249
sa(dp250
g2
S"Men's Basketball vs Southern Missippi-3:05p @ Reynolds Center"
p251
sg4
I00
sg5
g6
sg7
S'2013-11-10'
p252
sg9
S'2013-01-26T16:00:00-06:00'
p253
sg11
S'2013-01-26T15:00:00-06:00'
p254
sa(dp255
g2
S'Free Rock Climbing w/ TU Treks -'
p256
sg4
I00
sg5
g6
sg7
S'2013-11-10'
p257
sg9
S'2013-01-27T14:00:00-06:00'
p258
sg11
S'2013-01-27T12:00:00-06:00'
p259
sa(dp260
g2
S"Women's Basketball vs SMU-2p @ Reynolds Center"
p261
sg4
I00
sg5
g6
sg7
S'2013-11-10'
p262
sg9
S'2013-01-27T15:00:00-06:00'
p263
sg11
S'2013-01-27T14:00:00-06:00'
p264
sa(dp265
g2
S'Mass-11a & 8p @ Catholic Newman Center'
p266
sg4
I00
sg5
g6
sg7
S'2013-11-10'
p267
sg9
S'2013-01-27T21:00:00-06:00'
p268
sg11
S'2013-01-27T20:00:00-06:00'
p269
sa(dp270
g2
S'Free Lunch - 11am-1p @ BCM'
p271
sg4
I00
sg5
g6
sg7
S'2013-11-10'
p272
sg9
S'2013-01-28T13:00:00-06:00'
p273
sg11
S'2013-01-28T11:00:00-06:00'
p274
sa(dp275
g2
S'Tuesday Lunch - 11:30a-1p @ Catholic Newman Center'
p276
sg4
I00
sg5
g6
sg7
S'2013-11-10'
p277
sg9
S'2013-01-29T12:30:00-06:00'
p278
sg11
S'2013-01-29T11:30:00-06:00'
p279
sa(dp280
g2
S'Cabinet Meeting - 5p @ ACAC'
p281
sg4
I00
sg5
g6
sg7
S'2013-11-10'
p282
sg9
S'2013-01-29T17:45:00-06:00'
p283
sg11
S'2013-01-29T17:00:00-06:00'
p284
sg23
S'ACAC '
p285
sa(dp286
g2
S'SA Senate Meeting - 9p @ John Rogers'
p287
sg4
I00
sg5
g6
sg7
S'2013-11-10'
p288
sg9
S'2013-01-29T22:00:00-06:00'
p289
sg11
S'2013-01-29T21:00:00-06:00'
p290
sa(dp291
g2
S'Fellowship of Christian Athletes-9p @ Case Center'
p292
sg4
I00
sg5
g6
sg7
S'2013-11-10'
p293
sg9
S'2013-01-29T22:00:00-06:00'
p294
sg11
S'2013-01-29T21:00:00-06:00'
p295
sa(dp296
g2
S'Veggie Lunch-Noon @ Little Blue House'
p297
sg4
I00
sg5
g6
sg7
S'2013-11-10'
p298
sg9
S'2013-01-30T13:00:00-06:00'
p299
sg11
S'2013-01-30T12:00:00-06:00'
p300
sa(dp301
g2
S'English Corner Tutoring - 7:30p @ ACAC'
p302
sg4
I00
sg5
g6
sg7
S'2013-11-10'
p303
sg9
S'2013-01-30T19:30:00-06:00'
p304
sg11
S'2013-01-30T19:15:00-06:00'
p305
sa(dp306
g2
S'Free International Lunch-Noon @ Wesley'
p307
sg4
I00
sg5
g6
sg7
S'2013-11-10'
p308
sg9
S'2013-01-31T13:00:00-06:00'
p309
sg11
S'2013-01-31T12:00:00-06:00'
p310
sa(dp311
g2
S'Wii Dance Party - 7p-9p @ Mayo SAC'
p312
sg4
I00
sg5
g6
sg7
S'2013-11-10'
p313
sg9
S'2013-02-02'
p314
sg11
S'2013-02-01'
p315
sa(dp316
g2
S'Friday Noon Lunch - Noon @ Wesley'
p317
sg4
I00
sg5
g6
sg7
S'2013-11-10'
p318
sg9
S'2013-02-01T13:00:00-06:00'
p319
sg11
S'2013-02-01T12:00:00-06:00'
p320
sa(dp321
g2
S'APO Pizza Making & Movie Night-6-10p @ LaFortune Lobby'
p322
sg4
I00
sg5
g6
sg7
S'2013-11-10'
p323
sg9
S'2013-02-01T22:00:00-06:00'
p324
sg11
S'2013-02-01T18:00:00-06:00'
p325
sa(dp326
g2
S'Worship at Wesley - 7p @ Wesley'
p327
sg4
I00
sg5
g6
sg7
S'2013-11-10'
p328
sg9
S'2013-02-01T20:00:00-06:00'
p329
sg11
S'2013-02-01T19:00:00-06:00'
p330
sa(dp331
g2
S'Groundhog Day'
p332
sg4
I00
sg5
g6
sg7
S'2013-11-10'
p333
sg9
S'2013-02-03'
p334
sg11
S'2013-02-02'
p335
sa(dp336
g2
S'Super Bowl watch party - @ Wesley'
p337
sg4
I00
sg5
g6
sg7
S'2013-11-10'
p338
sg9
S'2013-02-03T18:30:00-06:00'
p339
sg11
S'2013-02-03T17:30:00-06:00'
p340
sa(dp341
g2
S'Mass-11a & 8p @ Catholic Newman Center'
p342
sg4
I00
sg5
g6
sg7
S'2013-11-10'
p343
sg9
S'2013-02-03T21:00:00-06:00'
p344
sg11
S'2013-02-03T20:00:00-06:00'
p345
sa(dp346
g2
S'Free Lunch - 11am-1p @ BCM'
p347
sg4
I00
sg5
g6
sg7
S'2013-11-10'
p348
sg9
S'2013-02-04T13:00:00-06:00'
p349
sg11
S'2013-02-04T11:00:00-06:00'
p350
sa(dp351
g2
S'TUSNA meeting - Noon @ Helmerich'
p352
sg4
I00
sg5
g6
sg7
S'2013-11-10'
p353
sg9
S'2013-02-04T13:00:00-06:00'
p354
sg11
S'2013-02-04T12:00:00-06:00'
p355
sa(dp356
g2
S'SIT Study Abroad meeting - Noon @ ACAC Chouteau'
p357
sg4
I00
sg5
g6
sg7
S'2013-11-10'
p358
sg9
S'2013-02-04T13:00:00-06:00'
p359
sg11
S'2013-02-04T12:00:00-06:00'
p360
sa(dp361
g2
S'Study Abroad Info - noon-1:30p @ Chapman'
p362
sg4
I00
sg5
g6
sg7
S'2013-11-10'
p363
sg9
S'2013-02-04T18:30:00-06:00'
p364
sg11
S'2013-02-04T17:30:00-06:00'
p365
sa(dp366
g2
S'TU Symphony Orchestra-7:30p @ TUPAC'
p367
sg4
I00
sg5
g6
sg7
S'2013-11-10'
p368
sg9
S'2013-02-04T20:30:00-06:00'
p369
sg11
S'2013-02-04T19:30:00-06:00'
p370
sa(dp371
g2
S'Study Abroad Info - 11a-1:30p @ Caf'
p372
sg4
I00
sg5
g6
sg7
S'2013-11-10'
p373
sg9
S'2013-02-05T12:00:00-06:00'
p374
sg11
S'2013-02-05T11:00:00-06:00'
p375
sa(dp376
g2
S'Tuesday Lunch - 11:30a-1p @ Catholic Newman Center'
p377
sg4
I00
sg5
g6
sg7
S'2013-11-10'
p378
sg9
S'2013-02-05T12:30:00-06:00'
p379
sg11
S'2013-02-05T11:30:00-06:00'
p380
sa(dp381
g2
S'Cabinet Meeting - 5p @ ACAC Great Hall B'
p382
sg4
I00
sg5
g6
sg7
S'2013-11-10'
p383
sg9
S'2013-02-05T17:45:00-06:00'
p384
sg11
S'2013-02-05T17:00:00-06:00'
p385
sg23
S'ACAC '
p386
sa(dp387
g2
S'SA Senate Meeting - 9p @ John Rogers'
p388
sg4
I00
sg5
g6
sg7
S'2013-11-10'
p389
sg9
S'2013-02-05T22:00:00-06:00'
p390
sg11
S'2013-02-05T21:00:00-06:00'
p391
sa(dp392
g2
S'Fellowship of Christian Athletes-9p @ Case Center'
p393
sg4
I00
sg5
g6
sg7
S'2013-11-10'
p394
sg9
S'2013-02-05T22:00:00-06:00'
p395
sg11
S'2013-02-05T21:00:00-06:00'
p396
sa(dp397
g2
S'Study Abroad Info - 11a-2p @ Helm'
p398
sg4
I00
sg5
g6
sg7
S'2013-11-10'
p399
sg9
S'2013-02-06T12:00:00-06:00'
p400
sg11
S'2013-02-06T11:00:00-06:00'
p401
sa(dp402
g2
S'EnviroSystems CareerFEST - 11-1p @ ACAC Lobby'
p403
sg4
I00
sg5
g6
sg7
S'2013-11-10'
p404
sg9
S'2013-02-06T13:00:00-06:00'
p405
sg11
S'2013-02-06T11:00:00-06:00'
p406
sa(dp407
g2
S'Veggie Lunch-Noon @ Little Blue House'
p408
sg4
I00
sg5
g6
sg7
S'2013-11-10'
p409
sg9
S'2013-02-06T13:00:00-06:00'
p410
sg11
S'2013-02-06T12:00:00-06:00'
p411
sa(dp412
g2
S'Body Image Barbie and Ken Lunch Speaker - Noon @ ACAC Great Hall'
p413
sg4
I00
sg5
g6
sg7
S'2013-11-10'
p414
sg9
S'2013-02-06T13:00:00-06:00'
p415
sg11
S'2013-02-06T12:00:00-06:00'
p416
sa(dp417
g2
S"Free Zio's for Relay - Noon @ ACAC"
p418
sg4
I00
sg5
g6
sg7
S'2013-11-10'
p419
sg9
S'2013-02-06T13:00:00-06:00'
p420
sg11
S'2013-02-06T12:00:00-06:00'
p421
sa(dp422
g2
S'Study Abroad Info Session - noon @ ACAC'
p423
sg4
I00
sg5
g6
sg7
S'2013-11-10'
p424
sg9
S'2013-02-06T13:00:00-06:00'
p425
sg11
S'2013-02-06T12:00:00-06:00'
p426
sa(dp427
g2
S'TUSSLHA Monthly Meeting - 12:15p @ Mary Chapman Center'
p428
sg4
I00
sg5
g6
sg7
S'2013-11-10'
p429
sg9
S'2013-02-06T13:00:00-06:00'
p430
sg11
S'2013-02-06T12:00:00-06:00'
p431
sa(dp432
g2
S'Peace Corps Info Session - noon @ LaFortune'
p433
sg4
I00
sg5
g6
sg7
S'2013-11-10'
p434
sg9
S'2013-02-06T13:00:00-06:00'
p435
sg11
S'2013-02-06T12:00:00-06:00'
p436
sa(dp437
g2
S'Study Abroad Info - 6p @ The Hut'
p438
sg4
I00
sg5
g6
sg7
S'2013-11-10'
p439
sg9
S'2013-02-06T16:15:00-06:00'
p440
sg11
S'2013-02-06T15:15:00-06:00'
p441
sa(dp442
g2
S"Men's Basketball vs UAB-7:05p @ Reynolds Center"
p443
sg4
I00
sg5
g6
sg7
S'2013-11-10'
p444
sg9
S'2013-02-06T20:00:00-06:00'
p445
sg11
S'2013-02-06T19:00:00-06:00'
p446
sa(dp447
g2
S'English Corner Tutoring - 7:30p @ ACAC'
p448
sg4
I00
sg5
g6
sg7
S'2013-11-10'
p449
sg9
S'2013-02-06T19:30:00-06:00'
p450
sg11
S'2013-02-06T19:15:00-06:00'
p451
sa(dp452
g2
S'SA Judicial Hearing - 8p @ John Rogers Hall Rm 202'
p453
sg4
I00
sg5
g6
sg7
S'2013-11-10'
p454
sg9
S'2013-02-06T21:00:00-06:00'
p455
sg11
S'2013-02-06T20:00:00-06:00'
p456
sa(dp457
g2
S'Free International Lunch-Noon @ Wesley'
p458
sg4
I00
sg5
g6
sg7
S'2013-11-10'
p459
sg9
S'2013-02-07T13:00:00-06:00'
p460
sg11
S'2013-02-07T12:00:00-06:00'
p461
sa(dp462
g2
S'Study Abroad Info/Movie - 7:30p @ Chapman'
p463
sg4
I00
sg5
g6
sg7
S'2013-11-10'
p464
sg9
S'2013-02-07T16:15:00-06:00'
p465
sg11
S'2013-02-07T15:15:00-06:00'
p466
sa(dp467
g2
S'Chi Alpha Superhero Party - 6p @ Mayo SAC'
p468
sg4
I00
sg5
g6
sg7
S'2013-11-10'
p469
sg9
S'2013-02-07T19:00:00-06:00'
p470
sg11
S'2013-02-07T18:00:00-06:00'
p471
sa(dp472
g2
S'Mortar Board Last Lecure Series-7p @ ACAC'
p473
sg4
I00
sg5
g6
sg7
S'2013-11-10'
p474
sg9
S'2013-02-07T20:00:00-06:00'
p475
sg11
S'2013-02-07T19:00:00-06:00'
p476
sa(dp477
g2
S'History Club Meeing - 11:30a @ Chapman 123'
p478
sg4
I00
sg5
g6
sg7
S'2013-11-10'
p479
sg9
S'2013-02-08T13:00:00-06:00'
p480
sg11
S'2013-02-08T12:00:00-06:00'
p481
sa(dp482
g2
S'Friday Noon Lunch - Noon @ Wesley'
p483
sg4
I00
sg5
g6
sg7
S'2013-11-10'
p484
sg9
S'2013-02-08T13:00:00-06:00'
p485
sg11
S'2013-02-08T12:00:00-06:00'
p486
sa(dp487
g2
S'ENS Study aboroad info Lunch - noon @ KEP M216'
p488
sg4
I00
sg5
g6
sg7
S'2013-11-10'
p489
sg9
S'2013-02-08T13:00:00-06:00'
p490
sg11
S'2013-02-08T12:00:00-06:00'
p491
sa(dp492
g2
S'MAA - Noon @ Kep U1'
p493
sg4
I00
sg5
g6
sg7
S'2013-11-10'
p494
sg9
S'2013-02-08T13:00:00-06:00'
p495
sg11
S'2013-02-08T12:00:00-06:00'
p496
sa(dp497
g2
S'Worship at Wesley-7p @ Wesley'
p498
sg4
I00
sg5
g6
sg7
S'2013-11-10'
p499
sg9
S'2013-02-08T20:00:00-06:00'
p500
sg11
S'2013-02-08T19:00:00-06:00'
p501
sa(dp502
g2
S'Spring Festival Celebration - 6p @ ACAC Great Hall'
p503
sg4
I00
sg5
g6
sg7
S'2013-11-10'
p504
sg9
S'2013-02-09T21:00:00-06:00'
p505
sg11
S'2013-02-09T18:00:00-06:00'
p506
sa(dp507
g2
S'TU Treks Ropes Course - 12:30p'
p508
sg4
I00
sg5
g6
sg7
S'2013-11-10'
p509
sg9
S'2013-02-10T13:30:00-06:00'
p510
sg11
S'2013-02-10T12:30:00-06:00'
p511
sa(dp512
g2
S"Women's Basketball vs Tulane-2p @ Reynolds Center"
p513
sg4
I00
sg5
g6
sg7
S'2013-11-10'
p514
sg9
S'2013-02-10T15:00:00-06:00'
p515
sg11
S'2013-02-10T14:00:00-06:00'
p516
sa(dp517
g2
S'Mass-11a & 8p @ Catholic Newman Center'
p518
sg4
I00
sg5
g6
sg7
S'2013-11-10'
p519
sg9
S'2013-02-10T21:00:00-06:00'
p520
sg11
S'2013-02-10T20:00:00-06:00'
p521
sa(dp522
g2
S'Free Lunch - 11am-1p @ BCM'
p523
sg4
I00
sg5
g6
sg7
S'2013-11-10'
p524
sg9
S'2013-02-11T13:00:00-06:00'
p525
sg11
S'2013-02-11T11:00:00-06:00'
p526
sa(dp527
g2
S'Nurses Christian Fellowship Meeting - Noon @ Helmerich 105'
p528
sg4
I00
sg5
g6
sg7
S'2013-11-10'
p529
sg9
S'2013-02-11T13:00:00-06:00'
p530
sg11
S'2013-02-11T12:00:00-06:00'
p531
sa(dp532
g2
S'Dr.Strange Love Movie - 7p @ Mayo SAC'
p533
sg4
I00
sg5
g6
sg7
S'2013-11-10'
p534
sg9
S'2013-02-11T20:00:00-06:00'
p535
sg11
S'2013-02-11T19:00:00-06:00'
p536
sa(dp537
g2
S"Gey'lah Jones Black History Month Speaker-7p @ ACAC Great Hall"
p538
sg4
I00
sg5
g6
sg7
S'2013-11-10'
p539
sg9
S'2013-02-11T20:00:00-06:00'
p540
sg11
S'2013-02-11T19:00:00-06:00'
p541
sa(dp542
g2
S'SA FAC Meeting - 7:30p @ ACAC SA Conference Room'
p543
sg4
I00
sg5
g6
sg7
S'2013-11-10'
p544
sg9
S'2013-02-11T20:30:00-06:00'
p545
sg11
S'2013-02-11T19:30:00-06:00'
p546
sa(dp547
g2
S"Lincoln's Birthday"
p548
sg4
I00
sg5
g6
sg7
S'2013-11-10'
p549
sg9
S'2013-02-13'
p550
sg11
S'2013-02-12'
p551
sa(dp552
g2
S'Tuesday Lunch - 11:30a-1p @ Catholic Newman Center'
p553
sg4
I00
sg5
g6
sg7
S'2013-11-10'
p554
sg9
S'2013-02-12T12:30:00-06:00'
p555
sg11
S'2013-02-12T11:30:00-06:00'
p556
sa(dp557
g2
S'Cabinet Meeting - 5p @ ACAC'
p558
sg4
I00
sg5
g6
sg7
S'2013-11-10'
p559
sg9
S'2013-02-12T17:45:00-06:00'
p560
sg11
S'2013-02-12T17:00:00-06:00'
p561
sg23
S'ACAC '
p562
sa(dp563
g2
S'Mr. Delta Sweethunk-7:30pm @ Tyrrell Auditorium'
p564
sg4
I00
sg5
g6
sg7
S'2013-11-10'
p565
sg9
S'2013-02-12T20:30:00-06:00'
p566
sg11
S'2013-02-12T19:30:00-06:00'
p567
sa(dp568
g2
S'Presidential Lecture Series: Robert Caro - 7:30p @ ACAC'
p569
sg4
I00
sg5
g6
sg7
S'2013-11-10'
p570
sg9
S'2013-02-12T20:30:00-06:00'
p571
sg11
S'2013-02-12T19:30:00-06:00'
p572
sa(dp573
g2
S'SA Senate Meeting - 9p @ John Rogers'
p574
sg4
I00
sg5
g6
sg7
S'2013-11-10'
p575
sg9
S'2013-02-12T22:00:00-06:00'
p576
sg11
S'2013-02-12T21:00:00-06:00'
p577
sa(dp578
g2
S'Fellowship of Christian Athletes-9p @ Case Center'
p579
sg4
I00
sg5
g6
sg7
S'2013-11-10'
p580
sg9
S'2013-02-12T22:00:00-06:00'
p581
sg11
S'2013-02-12T21:00:00-06:00'
p582
sa(dp583
g2
S'Ash Wednesday'
p584
sg4
I00
sg5
g6
sg7
S'2013-11-10'
p585
sg9
S'2013-02-14'
p586
sg11
S'2013-02-13'
p587
sa(dp588
g2
S'SAI Bake & Rose Sale - 8:30a-3p @ TU-PAC'
p589
sg4
I00
sg5
g6
sg7
S'2013-11-10'
p590
sg9
S'2013-02-13T15:00:00-06:00'
p591
sg11
S'2013-02-13T08:30:00-06:00'
p592
sa(dp593
g2
S'Veggie Lunch-Noon @ Little Blue House'
p594
sg4
I00
sg5
g6
sg7
S'2013-11-10'
p595
sg9
S'2013-02-13T13:00:00-06:00'
p596
sg11
S'2013-02-13T12:00:00-06:00'
p597
sa(dp598
g2
S'Future Athletic Trainers Society-Noon @ Reynolds Conference Room'
p599
sg4
I00
sg5
g6
sg7
S'2013-11-10'
p600
sg9
S'2013-02-13T13:00:00-06:00'
p601
sg11
S'2013-02-13T12:00:00-06:00'
p602
sa(dp603
g2
S'Psi Chi Resume Workshop - Noon @ Lorton 207'
p604
sg4
I00
sg5
g6
sg7
S'2013-11-10'
p605
sg9
S'2013-02-13T13:00:00-06:00'
p606
sg11
S'2013-02-13T12:00:00-06:00'
p607
sa(dp608
g2
S'Tri Beta Lunch Meeting-Noon @ Oliphant Hall Rm 300'
p609
sg4
I00
sg5
g6
sg7
S'2013-11-10'
p610
sg9
S'2013-02-13T13:00:00-06:00'
p611
sg11
S'2013-02-13T12:00:00-06:00'
p612
sa(dp613
g2
S'English Corner Tutoring - 7:30p @ ACAC'
p614
sg4
I00
sg5
g6
sg7
S'2013-11-10'
p615
sg9
S'2013-02-13T19:30:00-06:00'
p616
sg11
S'2013-02-13T19:15:00-06:00'
p617
sa(dp618
g2
S"Valentine's Day"
p619
sg4
I00
sg5
g6
sg7
S'2013-11-10'
p620
sg9
S'2013-02-15'
p621
sg11
S'2013-02-14'
p622
sa(dp623
g2
S'Colloquium Registration Due'
p624
sg4
I00
sg5
g6
sg7
S'2013-11-10'
p625
sg9
S'2013-02-15'
p626
sg11
S'2013-02-14'
p627
sa(dp628
g2
S'Free International Lunch-Noon @ Wesley'
p629
sg4
I00
sg5
g6
sg7
S'2013-11-10'
p630
sg9
S'2013-02-14T13:00:00-06:00'
p631
sg11
S'2013-02-14T12:00:00-06:00'
p632
sa(dp633
g2
S'"I\'ll Make a Man Out of You" lecture - 6p @ Chapman Lecture Hall'
p634
sg4
I00
sg5
g6
sg7
S'2013-11-10'
p635
sg9
S'2013-02-14T19:00:00-06:00'
p636
sg11
S'2013-02-14T18:00:00-06:00'
p637
sa(dp638
g2
S'Sigma Chi Derby Days Bowling - 7p @ Sig Chi House'
p639
sg4
I00
sg5
g6
sg7
S'2013-11-10'
p640
sg9
S'2013-02-14T20:00:00-06:00'
p641
sg11
S'2013-02-14T19:00:00-06:00'
p642
sa(dp643
g2
S'Waiting for the Parade Play - 8p @ Kendall'
p644
sg4
I00
sg5
g6
sg7
S'2013-11-10'
p645
sg9
S'2013-02-14T21:00:00-06:00'
p646
sg11
S'2013-02-14T20:00:00-06:00'
p647
sa(dp648
g2
S'ACM Meeting - Noon @ Kep U1'
p649
sg4
I00
sg5
g6
sg7
S'2013-11-10'
p650
sg9
S'2013-02-15T13:00:00-06:00'
p651
sg11
S'2013-02-15T12:00:00-06:00'
p652
sa(dp653
g2
S'Friday Noon Lunch - Noon @ Wesley'
p654
sg4
I00
sg5
g6
sg7
S'2013-11-10'
p655
sg9
S'2013-02-15T13:00:00-06:00'
p656
sg11
S'2013-02-15T12:00:00-06:00'
p657
sa(dp658
g2
S'HKN Meeting - Noon @ ACAC Great Hall A'
p659
sg4
I00
sg5
g6
sg7
S'2013-11-10'
p660
sg9
S'2013-02-15T13:00:00-06:00'
p661
sg11
S'2013-02-15T12:00:00-06:00'
p662
sa(dp663
g2
S'Stations of the Cross & Meatless Dinner-5p @ Catholic Newman Center'
p664
sg4
I00
sg5
g6
sg7
S'2013-11-10'
p665
sg9
S'2013-02-15T18:00:00-06:00'
p666
sg11
S'2013-02-15T17:00:00-06:00'
p667
sa(dp668
g2
S'Worship at Wesley-7p @ Wesley'
p669
sg4
I00
sg5
g6
sg7
S'2013-11-10'
p670
sg9
S'2013-02-15T20:00:00-06:00'
p671
sg11
S'2013-02-15T19:00:00-06:00'
p672
sa(dp673
g2
S'Biloxi Blues Play - 8p @ Kendall'
p674
sg4
I00
sg5
g6
sg7
S'2013-11-10'
p675
sg9
S'2013-02-15T21:00:00-06:00'
p676
sg11
S'2013-02-15T20:00:00-06:00'
p677
sa(dp678
g2
S'FE Exam Review Course-9a @ Kep U3'
p679
sg4
I00
sg5
g6
sg7
S'2013-11-10'
p680
sg9
S'2013-02-16T12:00:00-06:00'
p681
sg11
S'2013-02-16T09:00:00-06:00'
p682
sa(dp683
g2
S"Men's Basketball vs Houston-3:30p @ Reynolds Center"
p684
sg4
I00
sg5
g6
sg7
S'2013-11-10'
p685
sg9
S'2013-02-16T16:30:00-06:00'
p686
sg11
S'2013-02-16T15:30:00-06:00'
p687
sa(dp688
g2
S"St. Valentine's Dinner-7p @ Catholic Newman Center"
p689
sg4
I00
sg5
g6
sg7
S'2013-11-10'
p690
sg9
S'2013-02-16T20:00:00-06:00'
p691
sg11
S'2013-02-16T19:00:00-06:00'
p692
sa(dp693
g2
S'Waiting for the Parade Play - 8p @ Kendall'
p694
sg4
I00
sg5
g6
sg7
S'2013-11-10'
p695
sg9
S'2013-02-16T21:00:00-06:00'
p696
sg11
S'2013-02-16T20:00:00-06:00'
p697
sa(dp698
g2
S"Women's Basketball vs Rice-2p @ Reynolds Center"
p699
sg4
I00
sg5
g6
sg7
S'2013-11-10'
p700
sg9
S'2013-02-17T15:00:00-06:00'
p701
sg11
S'2013-02-17T14:00:00-06:00'
p702
sa(dp703
g2
S'Biloxi Blues Play - 2p @ Kendall'
p704
sg4
I00
sg5
g6
sg7
S'2013-11-10'
p705
sg9
S'2013-02-17T15:00:00-06:00'
p706
sg11
S'2013-02-17T14:00:00-06:00'
p707
sa(dp708
g2
S'All Campus Talent Show - 7:30p @ ACAC Great Hall'
p709
sg4
I00
sg5
g6
sg7
S'2013-11-10'
p710
sg9
S'2013-02-17T20:30:00-06:00'
p711
sg11
S'2013-02-17T19:30:00-06:00'
p712
sg23
S'Acac'
p713
sa(dp714
g2
S'Mass-11a & 8p @ Catholic Newman Center'
p715
sg4
I00
sg5
g6
sg7
S'2013-11-10'
p716
sg9
S'2013-02-17T21:00:00-06:00'
p717
sg11
S'2013-02-17T20:00:00-06:00'
p718
sa(dp719
g2
S'Tulsa Time Game Night-9p @ Mayo SAC'
p720
sg4
I00
sg5
g6
sg7
S'2013-11-10'
p721
sg9
S'2013-02-17T22:00:00-06:00'
p722
sg11
S'2013-02-17T21:00:00-06:00'
p723
sa(dp724
g2
S"President's Day"
p725
sg4
I00
sg5
g6
sg7
S'2013-11-10'
p726
sg9
S'2013-02-19'
p727
sg11
S'2013-02-18'
p728
sa(dp729
g2
S'ENS Week'
p730
sg4
I00
sg5
g6
sg7
S'2013-11-10'
p731
sg9
S'2013-02-19'
p732
sg11
S'2013-02-18'
p733
sa(dp734
g2
S'Tulsa Time - ACAC'
p735
sg4
I00
sg5
g6
sg7
S'2013-11-10'
p736
sg9
S'2013-02-19'
p737
sg11
S'2013-02-18'
p738
sa(dp739
g2
S'Free Donuts - 8:30a - 10a @ ENS Buildings'
p740
sg4
I00
sg5
g6
sg7
S'2013-11-10'
p741
sg9
S'2013-02-18T09:30:00-06:00'
p742
sg11
S'2013-02-18T08:30:00-06:00'
p743
sa(dp744
g2
S'Free Lunch - 11am-1p @ BCM'
p745
sg4
I00
sg5
g6
sg7
S'2013-11-10'
p746
sg9
S'2013-02-18T13:00:00-06:00'
p747
sg11
S'2013-02-18T11:00:00-06:00'
p748
sa(dp749
g2
S'Mr & Miss ENS - Noon @ KEP Atrium'
p750
sg4
I00
sg5
g6
sg7
S'2013-11-10'
p751
sg9
S'2013-02-18T13:00:00-06:00'
p752
sg11
S'2013-02-18T12:00:00-06:00'
p753
sa(dp754
g2
S'Luthern and Friends "Exorcisms in Christian Theology" - 7p @ Lorton 312'
p755
sg4
I00
sg5
g6
sg7
S'2013-11-10'
p756
sg9
S'2013-02-18T20:00:00-06:00'
p757
sg11
S'2013-02-18T19:00:00-06:00'
p758
sa(dp759
g2
S'Habitat for Humanity Meeting - 8p @ Sharp Chapel'
p760
sg4
I00
sg5
g6
sg7
S'2013-11-10'
p761
sg9
S'2013-02-18T21:00:00-06:00'
p762
sg11
S'2013-02-18T20:00:00-06:00'
p763
sa(dp764
g2
S'ENS Week'
p765
sg4
I00
sg5
g6
sg7
S'2013-11-10'
p766
sg9
S'2013-02-20'
p767
sg11
S'2013-02-19'
p768
sa(dp769
g2
S'Tuesday Lunch - 11:30a-1p @ Catholic Newman Center'
p770
sg4
I00
sg5
g6
sg7
S'2013-11-10'
p771
sg9
S'2013-02-19T12:30:00-06:00'
p772
sg11
S'2013-02-19T11:30:00-06:00'
p773
sa(dp774
g2
S'ENS Week Paper Plane Competition - 12:30p @ Kep'
p775
sg4
I00
sg5
g6
sg7
S'2013-11-10'
p776
sg9
S'2013-02-19T13:30:00-06:00'
p777
sg11
S'2013-02-19T12:30:00-06:00'
p778
sa(dp779
g2
S'Cabinet Meeting - 5p @ ACAC'
p780
sg4
I00
sg5
g6
sg7
S'2013-11-10'
p781
sg9
S'2013-02-19T17:45:00-06:00'
p782
sg11
S'2013-02-19T17:00:00-06:00'
p783
sg23
S'ACAC '
p784
sa(dp785
g2
S'SA Senate Meeting - 9p @ John Rogers'
p786
sg4
I00
sg5
g6
sg7
S'2013-11-10'
p787
sg9
S'2013-02-19T22:00:00-06:00'
p788
sg11
S'2013-02-19T21:00:00-06:00'
p789
sa(dp790
g2
S'Fellowship of Christian Athletes-9p @ Case Center'
p791
sg4
I00
sg5
g6
sg7
S'2013-11-10'
p792
sg9
S'2013-02-19T22:00:00-06:00'
p793
sg11
S'2013-02-19T21:00:00-06:00'
p794
sa(dp795
g2
S'ENS Week'
p796
sg4
I00
sg5
g6
sg7
S'2013-11-10'
p797
sg9
S'2013-02-21'
p798
sg11
S'2013-02-20'
p799
sa(dp800
g2
S'Free Lunch w/ Speaker - Noon @ KEP M1'
p801
sg4
I00
sg5
g6
sg7
S'2013-11-10'
p802
sg9
S'2013-02-20T13:00:00-06:00'
p803
sg11
S'2013-02-20T12:00:00-06:00'
p804
sa(dp805
g2
S'Veggie Lunch - Noon @ Little Blue House'
p806
sg4
I00
sg5
g6
sg7
S'2013-11-10'
p807
sg9
S'2013-02-20T13:00:00-06:00'
p808
sg11
S'2013-02-20T12:00:00-06:00'
p809
sa(dp810
g2
S'Freethinkers at TU Meeting - 6p @ ACAC Chouteau'
p811
sg4
I00
sg5
g6
sg7
S'2013-11-10'
p812
sg9
S'2013-02-20T19:00:00-06:00'
p813
sg11
S'2013-02-20T18:00:00-06:00'
p814
sa(dp815
g2
S'The Southern Arm of the Underground Railroad Lecure - 7p @ Lorton Performance Center'
p816
sg4
I00
sg5
g6
sg7
S'2013-11-10'
p817
sg9
S'2013-02-20T20:00:00-06:00'
p818
sg11
S'2013-02-20T19:00:00-06:00'
p819
sa(dp820
g2
S"Men's Basketball vs East Carolina-7:05p @ Reynolds Center"
p821
sg4
I00
sg5
g6
sg7
S'2013-11-10'
p822
sg9
S'2013-02-20T20:05:00-06:00'
p823
sg11
S'2013-02-20T19:05:00-06:00'
p824
sa(dp825
g2
S'English Corner Tutoring - 7:30p @ ACAC'
p826
sg4
I00
sg5
g6
sg7
S'2013-11-10'
p827
sg9
S'2013-02-20T19:30:00-06:00'
p828
sg11
S'2013-02-20T19:15:00-06:00'
p829
sa(dp830
g2
S'ENS Week'
p831
sg4
I00
sg5
g6
sg7
S'2013-11-10'
p832
sg9
S'2013-02-22'
p833
sg11
S'2013-02-21'
p834
sa(dp835
g2
S'Free International Lunch-Noon @ Wesley'
p836
sg4
I00
sg5
g6
sg7
S'2013-11-10'
p837
sg9
S'2013-02-21T13:00:00-06:00'
p838
sg11
S'2013-02-21T12:00:00-06:00'
p839
sa(dp840
g2
S'Barron Ryan Piano Concert, Free lunch - 12:15p @ University Methodist Church'
p841
sg4
I00
sg5
g6
sg7
S'2013-11-10'
p842
sg9
S'2013-02-21T13:15:00-06:00'
p843
sg11
S'2013-02-21T12:15:00-06:00'
p844
sa(dp845
g2
S'Chi Alpha Friendship Feast-6p @ 1112 S Evanston'
p846
sg4
I00
sg5
g6
sg7
S'2013-11-10'
p847
sg9
S'2013-02-21T20:00:00-06:00'
p848
sg11
S'2013-02-21T18:00:00-06:00'
p849
sa(dp850
g2
S'Faith and Food - 6p @ Newman Center'
p851
sg4
I00
sg5
g6
sg7
S'2013-11-10'
p852
sg9
S'2013-02-21T19:00:00-06:00'
p853
sg11
S'2013-02-21T18:00:00-06:00'
p854
sa(dp855
g2
S'Biloxi Blues Play - 8p @ Kendall'
p856
sg4
I00
sg5
g6
sg7
S'2013-11-10'
p857
sg9
S'2013-02-21T21:00:00-06:00'
p858
sg11
S'2013-02-21T20:00:00-06:00'
p859
sa(dp860
g2
S'AKA Date Auction - 8p @ ACAC Chouteau'
p861
sg4
I00
sg5
g6
sg7
S'2013-11-10'
p862
sg9
S'2013-02-21T21:00:00-06:00'
p863
sg11
S'2013-02-21T20:00:00-06:00'
p864
sa(dp865
g2
S'ENS Week'
p866
sg4
I00
sg5
g6
sg7
S'2013-11-10'
p867
sg9
S'2013-02-23'
p868
sg11
S'2013-02-22'
p869
sa(dp870
g2
S'Friday Noon Lunch - Noon @ Wesley'
p871
sg4
I00
sg5
g6
sg7
S'2013-11-10'
p872
sg9
S'2013-02-22T13:00:00-06:00'
p873
sg11
S'2013-02-22T12:00:00-06:00'
p874
sa(dp875
g2
S'ENS Week Free Pizza - Noon @ KEP'
p876
sg4
I00
sg5
g6
sg7
S'2013-11-10'
p877
sg9
S'2013-02-22T13:00:00-06:00'
p878
sg11
S'2013-02-22T12:00:00-06:00'
p879
sa(dp880
g2
S'Earth Matters "No Impact Man" and Free Sale - 5p @ Chapman Hall'
p881
sg4
I00
sg5
g6
sg7
S'2013-11-10'
p882
sg9
S'2013-02-22T18:00:00-06:00'
p883
sg11
S'2013-02-22T17:00:00-06:00'
p884
sa(dp885
g2
S'Stations of the Cross & Meatless Dinner-5p @ Catholic Newman Center'
p886
sg4
I00
sg5
g6
sg7
S'2013-11-10'
p887
sg9
S'2013-02-22T18:00:00-06:00'
p888
sg11
S'2013-02-22T17:00:00-06:00'
p889
sa(dp890
g2
S'Freethinkers: Seth Andrews - 6p @ ACAC Gallery'
p891
sg4
I00
sg5
g6
sg7
S'2013-11-10'
p892
sg9
S'2013-02-22T19:00:00-06:00'
p893
sg11
S'2013-02-22T18:00:00-06:00'
p894
sa(dp895
g2
S'Worship at Wesley-7p @ Wesley'
p896
sg4
I00
sg5
g6
sg7
S'2013-11-10'
p897
sg9
S'2013-02-22T20:00:00-06:00'
p898
sg11
S'2013-02-22T19:00:00-06:00'
p899
sa(dp900
g2
S'Game Night - 7p @ BCM'
p901
sg4
I00
sg5
g6
sg7
S'2013-11-10'
p902
sg9
S'2013-02-22T20:00:00-06:00'
p903
sg11
S'2013-02-22T19:00:00-06:00'
p904
sa(dp905
g2
S'Waiting for the Parade Play - 8p @ Kendall'
p906
sg4
I00
sg5
g6
sg7
S'2013-11-10'
p907
sg9
S'2013-02-22T21:00:00-06:00'
p908
sg11
S'2013-02-22T20:00:00-06:00'
p909
sa(dp910
g2
S'Service Day - 8a @ ACAC'
p911
sg4
I00
sg5
g6
sg7
S'2013-11-10'
p912
sg9
S'2013-02-23T13:00:00-06:00'
p913
sg11
S'2013-02-23T09:00:00-06:00'
p914
sa(dp915
g2
S'Multicultural Speed Dating - 6p @ ACAC Gallery'
p916
sg4
I00
sg5
g6
sg7
S'2013-11-10'
p917
sg9
S'2013-02-23T19:00:00-06:00'
p918
sg11
S'2013-02-23T18:00:00-06:00'
p919
sa(dp920
g2
S'Trivia Night - 7p @ Wesley Center'
p921
sg4
I00
sg5
g6
sg7
S'2013-11-10'
p922
sg9
S'2013-02-23T20:00:00-06:00'
p923
sg11
S'2013-02-23T19:00:00-06:00'
p924
sa(dp925
g2
S'Persian Student Association Dance Night - 8p @ Mayo SAC'
p926
sg4
I00
sg5
g6
sg7
S'2013-11-10'
p927
sg9
S'2013-02-24T00:00:00-06:00'
p928
sg11
S'2013-02-23T20:00:00-06:00'
p929
sa(dp930
g2
S'Biloxi Blues Play - 8p @ Kendall'
p931
sg4
I00
sg5
g6
sg7
S'2013-11-10'
p932
sg9
S'2013-02-23T21:00:00-06:00'
p933
sg11
S'2013-02-23T20:00:00-06:00'
p934
sa(dp935
g2
S'Waiting for the Parade Play - 2p @ Kendall'
p936
sg4
I00
sg5
g6
sg7
S'2013-11-10'
p937
sg9
S'2013-02-24T21:00:00-06:00'
p938
sg11
S'2013-02-24T20:00:00-06:00'
p939
sa(dp940
g2
S'Mass-11a & 8p @ Catholic Newman Center'
p941
sg4
I00
sg5
g6
sg7
S'2013-11-10'
p942
sg9
S'2013-02-24T21:00:00-06:00'
p943
sg11
S'2013-02-24T20:00:00-06:00'
p944
sa(dp945
g2
S'Free Lunch - 11am-1p @ BCM'
p946
sg4
I00
sg5
g6
sg7
S'2013-11-10'
p947
sg9
S'2013-02-25T13:00:00-06:00'
p948
sg11
S'2013-02-25T11:00:00-06:00'
p949
sa(dp950
g2
S'Phi Mu Alpha Philanthrophy Week-5p @ ACAC Gallery'
p951
sg4
I00
sg5
g6
sg7
S'2013-11-10'
p952
sg9
S'2013-02-25T18:00:00-06:00'
p953
sg11
S'2013-02-25T17:00:00-06:00'
p954
sa(dp955
g2
S'Tuesday Lunch - 11:30a-1p @ Catholic Newman Center'
p956
sg4
I00
sg5
g6
sg7
S'2013-11-10'
p957
sg9
S'2013-02-26T12:30:00-06:00'
p958
sg11
S'2013-02-26T11:30:00-06:00'
p959
sa(dp960
g2
S'Cabinet Meeting - 5p @ ACAC'
p961
sg4
I00
sg5
g6
sg7
S'2013-11-10'
p962
sg9
S'2013-02-26T17:45:00-06:00'
p963
sg11
S'2013-02-26T17:00:00-06:00'
p964
sg23
S'ACAC '
p965
sa(dp966
g2
S"Up 'till Dawn- @ ACAC Great Hall"
p967
sg4
I00
sg5
g6
sg7
S'2013-11-10'
p968
sg9
S'2013-02-26T22:00:00-06:00'
p969
sg11
S'2013-02-26T19:00:00-06:00'
p970
sa(dp971
g2
S'SA Senate Meeting - 9p @ John Rogers'
p972
sg4
I00
sg5
g6
sg7
S'2013-11-10'
p973
sg9
S'2013-02-26T22:00:00-06:00'
p974
sg11
S'2013-02-26T21:00:00-06:00'
p975
sa(dp976
g2
S'Fellowship of Christian Athletes-9p @ Case Center'
p977
sg4
I00
sg5
g6
sg7
S'2013-11-10'
p978
sg9
S'2013-02-26T22:00:00-06:00'
p979
sg11
S'2013-02-26T21:00:00-06:00'
p980
sa(dp981
g2
S'AAPG Meeting - Noon @ Kep M8'
p982
sg4
I00
sg5
g6
sg7
S'2013-11-10'
p983
sg9
S'2013-02-27T13:00:00-06:00'
p984
sg11
S'2013-02-27T12:00:00-06:00'
p985
sa(dp986
g2
S'Mechanical Engineering Presentation by Zeeco - Noon @ Kep U9'
p987
sg4
I00
sg5
g6
sg7
S'2013-11-10'
p988
sg9
S'2013-02-27T13:00:00-06:00'
p989
sg11
S'2013-02-27T12:00:00-06:00'
p990
sa(dp991
g2
S'Veggie Lunch - Noon @ Little Blue House'
p992
sg4
I00
sg5
g6
sg7
S'2013-11-10'
p993
sg9
S'2013-02-27T13:00:00-06:00'
p994
sg11
S'2013-02-27T12:00:00-06:00'
p995
sa(dp996
g2
S'ACM Meeting - noon @ KEP  U1'
p997
sg4
I00
sg5
g6
sg7
S'2013-11-10'
p998
sg9
S'2013-02-27T17:00:00-06:00'
p999
sg11
S'2013-02-27T16:00:00-06:00'
p1000
sa(dp1001
g2
S'AED Medical School Senior Student Panel w/ Hideaway Pizza - 6p @ Kep M1'
p1002
sg4
I00
sg5
g6
sg7
S'2013-11-10'
p1003
sg9
S'2013-02-27T19:00:00-06:00'
p1004
sg11
S'2013-02-27T18:00:00-06:00'
p1005
sa(dp1006
g2
S'Student Investment Group Speaker Series - 6p @ Helmerich 219'
p1007
sg4
I00
sg5
g6
sg7
S'2013-11-10'
p1008
sg9
S'2013-02-27T21:00:00-06:00'
p1009
sg11
S'2013-02-27T18:00:00-06:00'
p1010
sa(dp1011
g2
S'Phi Mu Alpha Philanthrophy Week-7:30p @ Meing Recital Hall'
p1012
sg4
I00
sg5
g6
sg7
S'2013-11-10'
p1013
sg9
S'2013-02-27T20:00:00-06:00'
p1014
sg11
S'2013-02-27T19:00:00-06:00'
p1015
sa(dp1016
g2
S'English Corner Tutoring - 7:30p @ ACAC'
p1017
sg4
I00
sg5
g6
sg7
S'2013-11-10'
p1018
sg9
S'2013-02-27T19:30:00-06:00'
p1019
sg11
S'2013-02-27T19:15:00-06:00'
p1020
sa(dp1021
g2
S'Sex Signals: Are you getting the signal? - 9p @ ACAC Great Hall B'
p1022
sg4
I00
sg5
g6
sg7
S'2013-11-10'
p1023
sg9
S'2013-02-27T22:00:00-06:00'
p1024
sg11
S'2013-02-27T21:00:00-06:00'
p1025
sa(dp1026
g2
S'Free International Lunch-Noon @ Wesley'
p1027
sg4
I00
sg5
g6
sg7
S'2013-11-10'
p1028
sg9
S'2013-02-28T13:00:00-06:00'
p1029
sg11
S'2013-02-28T12:00:00-06:00'
p1030
sa(dp1031
g2
S'Chi Alpha Friendship Feast-6p @ 1112 S Evanston'
p1032
sg4
I00
sg5
g6
sg7
S'2013-11-10'
p1033
sg9
S'2013-02-28T20:00:00-06:00'
p1034
sg11
S'2013-02-28T18:00:00-06:00'
p1035
sa(dp1036
g2
S"Women's Basketball vs Memphis-7p @ Reynolds Center"
p1037
sg4
I00
sg5
g6
sg7
S'2013-11-10'
p1038
sg9
S'2013-02-28T20:00:00-06:00'
p1039
sg11
S'2013-02-28T19:00:00-06:00'
p1040
sa(dp1041
g2
S'Kappacino - 8-10p @ Kappa Kappa Gamma House'
p1042
sg4
I00
sg5
g6
sg7
S'2013-11-10'
p1043
sg9
S'2013-02-28T22:00:00-06:00'
p1044
sg11
S'2013-02-28T20:00:00-06:00'
p1045
sa(dp1046
g2
S'Friday Noon Lunch - Noon @ Wesley'
p1047
sg4
I00
sg5
g6
sg7
S'2013-11-10'
p1048
sg9
S'2013-03-01T13:00:00-06:00'
p1049
sg11
S'2013-03-01T12:00:00-06:00'
p1050
sa(dp1051
g2
S'ACM Meeting - Noon @ Kep U1'
p1052
sg4
I00
sg5
g6
sg7
S'2013-11-10'
p1053
sg9
S'2013-03-01T13:00:00-06:00'
p1054
sg11
S'2013-03-01T12:00:00-06:00'
p1055
sa(dp1056
g2
S'Hoops for Home - 3-7p @ Collins Fitness Center'
p1057
sg4
I00
sg5
g6
sg7
S'2013-11-10'
p1058
sg9
S'2013-03-01T19:00:00-06:00'
p1059
sg11
S'2013-03-01T15:00:00-06:00'
p1060
sa(dp1061
g2
S'Stations of the Cross & Meatless Dinner-5p @ Catholic Newman Center'
p1062
sg4
I00
sg5
g6
sg7
S'2013-11-10'
p1063
sg9
S'2013-03-01T18:00:00-06:00'
p1064
sg11
S'2013-03-01T17:00:00-06:00'
p1065
sa(dp1066
g2
S'Worship at Wesley-7p @ Wesley'
p1067
sg4
I00
sg5
g6
sg7
S'2013-11-10'
p1068
sg9
S'2013-03-01T20:00:00-06:00'
p1069
sg11
S'2013-03-01T19:00:00-06:00'
p1070
sa(dp1071
g2
S'Tabletop Gaming Club - 2-6p @ The Caf'
p1072
sg4
I00
sg5
g6
sg7
S'2013-11-10'
p1073
sg9
S'2013-03-02T17:00:00-06:00'
p1074
sg11
S'2013-03-02T14:00:00-06:00'
p1075
sa(dp1076
g2
S"Men's Basketball vs Tulane-3:05p @ Reynolds Center"
p1077
sg4
I00
sg5
g6
sg7
S'2013-11-10'
p1078
sg9
S'2013-03-02T16:00:00-06:00'
p1079
sg11
S'2013-03-02T15:00:00-06:00'
p1080
sa(dp1081
g2
S'AIS International Night - 7p @ LPC Gussman'
p1082
sg4
I00
sg5
g6
sg7
S'2013-11-10'
p1083
sg9
S'2013-03-02T21:00:00-06:00'
p1084
sg11
S'2013-03-02T19:00:00-06:00'
p1085
sa(dp1086
g2
S'Spiked Punch Lines Improv Show - 7p @ SAC'
p1087
sg4
I00
sg5
g6
sg7
S'2013-11-10'
p1088
sg9
S'2013-03-02T20:00:00-06:00'
p1089
sg11
S'2013-03-02T19:00:00-06:00'
p1090
sa(dp1091
g2
S'Mass-11a & 8p @ Catholic Newman Center'
p1092
sg4
I00
sg5
g6
sg7
S'2013-11-10'
p1093
sg9
S'2013-03-03T21:00:00-06:00'
p1094
sg11
S'2013-03-03T20:00:00-06:00'
p1095
sa(dp1096
g2
S'Graduate Student Appreciation Week'
p1097
sg4
I00
sg5
g6
sg7
S'2013-11-10'
p1098
sg9
S'2013-03-05'
p1099
sg11
S'2013-03-04'
p1100
sa(dp1101
g2
S'Free Lunch - 11am-1p @ BCM'
p1102
sg4
I00
sg5
g6
sg7
S'2013-11-10'
p1103
sg9
S'2013-03-04T13:00:00-06:00'
p1104
sg11
S'2013-03-04T11:00:00-06:00'
p1105
sa(dp1106
g2
S'Real Deal Lunch: Myths of Human Trafficking - Noon @ ACAC Chouteau'
p1107
sg4
I00
sg5
g6
sg7
S'2013-11-10'
p1108
sg9
S'2013-03-04T13:00:00-06:00'
p1109
sg11
S'2013-03-04T12:00:00-06:00'
p1110
sa(dp1111
g2
S'Shamrock $5 Philanthropy Cookout Dinner - 5p @ Kappa Delta House'
p1112
sg4
I00
sg5
g6
sg7
S'2013-11-10'
p1113
sg9
S'2013-03-04T19:00:00-06:00'
p1114
sg11
S'2013-03-04T17:00:00-06:00'
p1115
sa(dp1116
g2
S'TU Symphonic Winds-7:30p @ TUPAC'
p1117
sg4
I00
sg5
g6
sg7
S'2013-11-10'
p1118
sg9
S'2013-03-04T20:30:00-06:00'
p1119
sg11
S'2013-03-04T19:30:00-06:00'
p1120
sa(dp1121
g2
S'Tuesday Lunch - 11:30a-1p @ Catholic Newman Center'
p1122
sg4
I00
sg5
g6
sg7
S'2013-11-10'
p1123
sg9
S'2013-03-05T12:30:00-06:00'
p1124
sg11
S'2013-03-05T11:30:00-06:00'
p1125
sa(dp1126
g2
S'Cabinet Meeting - 5p @ ACAC'
p1127
sg4
I00
sg5
g6
sg7
S'2013-11-10'
p1128
sg9
S'2013-03-05T17:45:00-06:00'
p1129
sg11
S'2013-03-05T17:00:00-06:00'
p1130
sg23
S'ACAC '
p1131
sa(dp1132
g2
S'Motivational Speaker - 6p @ Lorton Hall 207'
p1133
sg4
I00
sg5
g6
sg7
S'2013-11-10'
p1134
sg9
S'2013-03-05T19:00:00-06:00'
p1135
sg11
S'2013-03-05T18:00:00-06:00'
p1136
sa(dp1137
g2
S'Gender Violence and Health lecture - 7:30p @ John Rogers Hall'
p1138
sg4
I00
sg5
g6
sg7
S'2013-11-10'
p1139
sg9
S'2013-03-05T20:30:00-06:00'
p1140
sg11
S'2013-03-05T19:30:00-06:00'
p1141
sa(dp1142
g2
S'RUF Exodus Study - 7:30p @ Tyrrell Hall'
p1143
sg4
I00
sg5
g6
sg7
S'2013-11-10'
p1144
sg9
S'2013-03-05T20:30:00-06:00'
p1145
sg11
S'2013-03-05T19:30:00-06:00'
p1146
sa(dp1147
g2
S'SA Senate Meeting - 9p @ John Rogers'
p1148
sg4
I00
sg5
g6
sg7
S'2013-11-10'
p1149
sg9
S'2013-03-05T22:00:00-06:00'
p1150
sg11
S'2013-03-05T21:00:00-06:00'
p1151
sa(dp1152
g2
S'Fellowship of Christian Athletes-9p @ Case Center'
p1153
sg4
I00
sg5
g6
sg7
S'2013-11-10'
p1154
sg9
S'2013-03-05T22:00:00-06:00'
p1155
sg11
S'2013-03-05T21:00:00-06:00'
p1156
sa(dp1157
g2
S'Peace Corps Info Session - noon @ LaFortune'
p1158
sg4
I00
sg5
g6
sg7
S'2013-11-10'
p1159
sg9
S'2013-03-06T13:00:00-06:00'
p1160
sg11
S'2013-03-06T12:00:00-06:00'
p1161
sa(dp1162
g2
S'History Club Lee Roy Chapman Lecture - Noon @ Chapman Lecture Hall'
p1163
sg4
I00
sg5
g6
sg7
S'2013-11-10'
p1164
sg9
S'2013-03-06T13:00:00-06:00'
p1165
sg11
S'2013-03-06T12:00:00-06:00'
p1166
sa(dp1167
g2
S'TUSSLHA Monthly Meeting - 12:15p @ Mary Chapman Center'
p1168
sg4
I00
sg5
g6
sg7
S'2013-11-10'
p1169
sg9
S'2013-03-06T13:00:00-06:00'
p1170
sg11
S'2013-03-06T12:00:00-06:00'
p1171
sa(dp1172
g2
S'Veggie Lunch - Noon @ Little Blue House'
p1173
sg4
I00
sg5
g6
sg7
S'2013-11-10'
p1174
sg9
S'2013-03-06T13:00:00-06:00'
p1175
sg11
S'2013-03-06T12:00:00-06:00'
p1176
sa(dp1177
g2
S'English Corner Tutoring - 7:30p @ ACAC'
p1178
sg4
I00
sg5
g6
sg7
S'2013-11-10'
p1179
sg9
S'2013-03-06T16:30:00-06:00'
p1180
sg11
S'2013-03-06T15:30:00-06:00'
p1181
sa(dp1182
g2
S'Softball Game (free Hot Dog for 1st 50 students) - 4p @ Collins Softball Complex'
p1183
sg4
I00
sg5
g6
sg7
S'2013-11-10'
p1184
sg9
S'2013-03-06T17:00:00-06:00'
p1185
sg11
S'2013-03-06T16:00:00-06:00'
p1186
sa(dp1187
g2
S'Freethinkers at TU Meeting - 6p @ ACAC'
p1188
sg4
I00
sg5
g6
sg7
S'2013-11-10'
p1189
sg9
S'2013-03-06T19:00:00-06:00'
p1190
sg11
S'2013-03-06T18:00:00-06:00'
p1191
sa(dp1192
g2
S"Men's Basketball vs SMU-7:05p @ Reynolds Center"
p1193
sg4
I00
sg5
g6
sg7
S'2013-11-10'
p1194
sg9
S'2013-03-06T20:00:00-06:00'
p1195
sg11
S'2013-03-06T19:00:00-06:00'
p1196
sa(dp1197
g2
S'Free International Lunch-Noon @ Wesley'
p1198
sg4
I00
sg5
g6
sg7
S'2013-11-10'
p1199
sg9
S'2013-03-07T13:00:00-06:00'
p1200
sg11
S'2013-03-07T12:00:00-06:00'
p1201
sa(dp1202
g2
S'Kappa Delta Flag Football Tournament - 4p @ New U'
p1203
sg4
I00
sg5
g6
sg7
S'2013-11-10'
p1204
sg9
S'2013-03-07T17:00:00-06:00'
p1205
sg11
S'2013-03-07T16:00:00-06:00'
p1206
sa(dp1207
g2
S'Etiquette Dinner - 5:30p @ ACAC'
p1208
sg4
I00
sg5
g6
sg7
S'2013-11-10'
p1209
sg9
S'2013-03-07T18:30:00-06:00'
p1210
sg11
S'2013-03-07T17:30:00-06:00'
p1211
sa(dp1212
g2
S'Chi Alpha Friendship Feast-6p @ 1112 S Evanston'
p1213
sg4
I00
sg5
g6
sg7
S'2013-11-10'
p1214
sg9
S'2013-03-07T20:00:00-06:00'
p1215
sg11
S'2013-03-07T18:00:00-06:00'
p1216
sa(dp1217
g2
S"Women's Basketball vs Houston-7p @ Reynolds Center"
p1218
sg4
I00
sg5
g6
sg7
S'2013-11-10'
p1219
sg9
S'2013-03-07T20:00:00-06:00'
p1220
sg11
S'2013-03-07T19:00:00-06:00'
p1221
sa(dp1222
g2
S"TUSHRM w/ Jimmy John's - Noon @ Helmerich 219"
p1223
sg4
I00
sg5
g6
sg7
S'2013-11-10'
p1224
sg9
S'2013-03-08T13:00:00-06:00'
p1225
sg11
S'2013-03-08T12:00:00-06:00'
p1226
sg23
S'Helmerich 219'
p1227
sa(dp1228
g2
S"IEEE Meeting w/ McAlister's- Noon @ Kep U1"
p1229
sg4
I00
sg5
g6
sg7
S'2013-11-10'
p1230
sg9
S'2013-03-08T13:00:00-06:00'
p1231
sg11
S'2013-03-08T12:00:00-06:00'
p1232
sg23
S'Kep U1'
p1233
sa(dp1234
g2
S'Friday Noon Lunch - Noon @ Wesley'
p1235
sg4
I00
sg5
g6
sg7
S'2013-11-10'
p1236
sg9
S'2013-03-08T13:00:00-06:00'
p1237
sg11
S'2013-03-08T12:00:00-06:00'
p1238
sa(dp1239
g2
S'A Deeper Look into Sexuality: Pansexuality & Bisexuality - Noon @ ACAC Chouteau'
p1240
sg4
I00
sg5
g6
sg7
S'2013-11-10'
p1241
sg9
S'2013-03-08T13:00:00-06:00'
p1242
sg11
S'2013-03-08T12:00:00-06:00'
p1243
sa(dp1244
g2
S'Stations of the Cross & Meatless Dinner-5p @ Catholic Newman Center'
p1245
sg4
I00
sg5
g6
sg7
S'2013-11-10'
p1246
sg9
S'2013-03-08T18:00:00-06:00'
p1247
sg11
S'2013-03-08T17:00:00-06:00'
p1248
sa(dp1249
g2
S'Medicine Wheel Award Nominations Due - 5p to kathy-shelton@utulsa.edu'
p1250
sg4
I00
sg5
g6
sg7
S'2013-11-10'
p1251
sg9
S'2013-03-08T18:00:00-06:00'
p1252
sg11
S'2013-03-08T17:00:00-06:00'
p1253
sa(dp1254
g2
S'Worship at Wesley-7p @ Wesley'
p1255
sg4
I00
sg5
g6
sg7
S'2013-11-10'
p1256
sg9
S'2013-03-08T20:00:00-06:00'
p1257
sg11
S'2013-03-08T19:00:00-06:00'
p1258
sa(dp1259
g2
S'Writings to Stop Violence Against Women and Girls- 7:30p @ Chapman Lecture Hall'
p1260
sg4
I00
sg5
g6
sg7
S'2013-11-10'
p1261
sg9
S'2013-03-08T20:30:00-06:00'
p1262
sg11
S'2013-03-08T19:30:00-06:00'
p1263
sa(dp1264
g2
S'Tabletop Gaming Club - 2-6p @ The Caf'
p1265
sg4
I00
sg5
g6
sg7
S'2013-11-10'
p1266
sg9
S'2013-03-09T17:00:00-06:00'
p1267
sg11
S'2013-03-09T14:00:00-06:00'
p1268
sa(dp1269
g2
S'Saudi Arabian Game Night & Make Friends Night - 5p @ Mayo SAC'
p1270
sg4
I00
sg5
g6
sg7
S'2013-11-10'
p1271
sg9
S'2013-03-09T19:00:00-06:00'
p1272
sg11
S'2013-03-09T17:00:00-06:00'
p1273
sg23
S'Mayo Sac'
p1274
sa(dp1275
g2
S'Daylight Saving Time Begins'
p1276
sg4
I00
sg5
g6
sg7
S'2013-11-10'
p1277
sg9
S'2013-03-11'
p1278
sg11
S'2013-03-10'
p1279
sa(dp1280
g2
S'AKA "Praise with the K\'s" - Carpool 10:15a @ ACAC'
p1281
sg4
I00
sg5
g6
sg7
S'2013-11-10'
p1282
sg9
S'2013-03-10T11:15:00-05:00'
p1283
sg11
S'2013-03-10T10:15:00-05:00'
p1284
sg23
S'Acac'
p1285
sa(dp1286
g2
S'Springfest Kick off Party - 7p @ ACAC'
p1287
sg4
I00
sg5
g6
sg7
S'2013-11-10'
p1288
sg9
S'2013-03-10T21:00:00-05:00'
p1289
sg11
S'2013-03-10T19:00:00-05:00'
p1290
sa(dp1291
g2
S'Mass-11a & 8p @ Catholic Newman Center'
p1292
sg4
I00
sg5
g6
sg7
S'2013-11-10'
p1293
sg9
S'2013-03-10T21:00:00-05:00'
p1294
sg11
S'2013-03-10T20:00:00-05:00'
p1295
sa(dp1296
g2
S'Free Lunch - 11am-1p @ BCM'
p1297
sg4
I00
sg5
g6
sg7
S'2013-11-10'
p1298
sg9
S'2013-03-11T13:00:00-05:00'
p1299
sg11
S'2013-03-11T11:00:00-05:00'
p1300
sa(dp1301
g2
S'Nurses Christian Fellowship Meeting - Noon @ Helmerich 105'
p1302
sg4
I00
sg5
g6
sg7
S'2013-11-10'
p1303
sg9
S'2013-03-11T13:00:00-05:00'
p1304
sg11
S'2013-03-11T12:00:00-05:00'
p1305
sa(dp1306
g2
S'Relay for Life Dinner ($5) - 5p @ ACAC Chouteau'
p1307
sg4
I00
sg5
g6
sg7
S'2013-11-10'
p1308
sg9
S'2013-03-11T19:00:00-05:00'
p1309
sg11
S'2013-03-11T17:00:00-05:00'
p1310
sg23
S'Acac Chouteau'
p1311
sa(dp1312
g2
S'AKAerobics - 7:08p @ Collins Fitness Center'
p1313
sg4
I00
sg5
g6
sg7
S'2013-11-10'
p1314
sg9
S'2013-03-11T20:08:00-05:00'
p1315
sg11
S'2013-03-11T19:08:00-05:00'
p1316
sg23
S'Collins Fitness Center'
p1317
sa(dp1318
g2
S'Clothing and Food Drive @ Bookstore & PCDC'
p1319
sg4
I00
sg5
g6
sg7
S'2013-11-10'
p1320
sg9
S'2013-03-13'
p1321
sg11
S'2013-03-12'
p1322
sa(dp1323
g2
S'Tuesday Lunch - 11:30a-1p @ Catholic Newman Center'
p1324
sg4
I00
sg5
g6
sg7
S'2013-11-10'
p1325
sg9
S'2013-03-12T12:30:00-05:00'
p1326
sg11
S'2013-03-12T11:30:00-05:00'
p1327
sa(dp1328
g2
S'Presentation Skills Workshop - 3p @ ACAC Great Hall B'
p1329
sg4
I00
sg5
g6
sg7
S'2013-11-10'
p1330
sg9
S'2013-03-12T17:00:00-05:00'
p1331
sg11
S'2013-03-12T15:00:00-05:00'
p1332
sg23
S'Acac Great Hall B'
p1333
sa(dp1334
g2
S'Deaf Bingo - 4-7p @ The Hut'
p1335
sg4
I00
sg5
g6
sg7
S'2013-11-10'
p1336
sg9
S'2013-03-12T18:00:00-05:00'
p1337
sg11
S'2013-03-12T16:00:00-05:00'
p1338
sa(dp1339
g2
S'Cabinet Meeting - 5p @ ACAC'
p1340
sg4
I00
sg5
g6
sg7
S'2013-11-10'
p1341
sg9
S'2013-03-12T17:45:00-05:00'
p1342
sg11
S'2013-03-12T17:00:00-05:00'
p1343
sg23
S'ACAC '
p1344
sa(dp1345
g2
S'Relay for Life Rave - 7-10p @ Mabee Gym'
p1346
sg4
I00
sg5
g6
sg7
S'2013-11-10'
p1347
sg9
S'2013-03-12T22:00:00-05:00'
p1348
sg11
S'2013-03-12T19:00:00-05:00'
p1349
sa(dp1350
g2
S'RUF Exodus Study - 7:30p @ Tyrrell Hall'
p1351
sg4
I00
sg5
g6
sg7
S'2013-11-10'
p1352
sg9
S'2013-03-12T20:30:00-05:00'
p1353
sg11
S'2013-03-12T19:30:00-05:00'
p1354
sa(dp1355
g2
S'Relay Rave - 9p @ Old U'
p1356
sg4
I00
sg5
g6
sg7
S'2013-11-10'
p1357
sg9
S'2013-03-12T22:00:00-05:00'
p1358
sg11
S'2013-03-12T21:00:00-05:00'
p1359
sa(dp1360
g2
S'SA Senate Meeting - 9p @ John Rogers'
p1361
sg4
I00
sg5
g6
sg7
S'2013-11-10'
p1362
sg9
S'2013-03-12T22:00:00-05:00'
p1363
sg11
S'2013-03-12T21:00:00-05:00'
p1364
sa(dp1365
g2
S'Fellowship of Christian Athletes-9p @ Case Center'
p1366
sg4
I00
sg5
g6
sg7
S'2013-11-10'
p1367
sg9
S'2013-03-12T22:00:00-05:00'
p1368
sg11
S'2013-03-12T21:00:00-05:00'
p1369
sa(dp1370
g2
S'CUSA Basketball Championship @ BOK Center'
p1371
sg4
I00
sg5
g6
sg7
S'2013-11-10'
p1372
sg9
S'2013-03-14'
p1373
sg11
S'2013-03-13'
p1374
sa(dp1375
g2
S'Psychology Career Panel - Noon @ Lorton 207'
p1376
sg4
I00
sg5
g6
sg7
S'2013-11-10'
p1377
sg9
S'2013-03-13T13:00:00-05:00'
p1378
sg11
S'2013-03-13T12:00:00-05:00'
p1379
sg23
S'Lorton 207'
p1380
sa(dp1381
g2
S'AAPG Meeting - Noon @ Kep M8'
p1382
sg4
I00
sg5
g6
sg7
S'2013-11-10'
p1383
sg9
S'2013-03-13T13:00:00-05:00'
p1384
sg11
S'2013-03-13T12:00:00-05:00'
p1385
sa(dp1386
g2
S'Tri Beta Lunch Meeting-Noon @ Oliphant Hall Rm 300'
p1387
sg4
I00
sg5
g6
sg7
S'2013-11-10'
p1388
sg9
S'2013-03-13T13:00:00-05:00'
p1389
sg11
S'2013-03-13T12:00:00-05:00'
p1390
sa(dp1391
g2
S'Veggie Lunch - Noon @ Little Blue House'
p1392
sg4
I00
sg5
g6
sg7
S'2013-11-10'
p1393
sg9
S'2013-03-13T13:00:00-05:00'
p1394
sg11
S'2013-03-13T12:00:00-05:00'
p1395
sa(dp1396
g2
S'Alpha Kappa Alpha Spades Tournament - 7:08p @ ACAC Chouteau'
p1397
sg4
I00
sg5
g6
sg7
S'2013-11-10'
p1398
sg9
S'2013-03-13T20:08:00-05:00'
p1399
sg11
S'2013-03-13T19:08:00-05:00'
p1400
sg23
S'Acac Chouteau'
p1401
sa(dp1402
g2
S'English Corner Tutoring - 7:30p @ ACAC'
p1403
sg4
I00
sg5
g6
sg7
S'2013-11-10'
p1404
sg9
S'2013-03-13T20:30:00-05:00'
p1405
sg11
S'2013-03-13T19:30:00-05:00'
p1406
sa(dp1407
g2
S'Relay for Life Dodgeball Tournament - 8p @ Old U'
p1408
sg4
I00
sg5
g6
sg7
S'2013-11-10'
p1409
sg9
S'2013-03-13T21:00:00-05:00'
p1410
sg11
S'2013-03-13T20:00:00-05:00'
p1411
sa(dp1412
g2
S'CUSA Basketball Championship @ BOK Center'
p1413
sg4
I00
sg5
g6
sg7
S'2013-11-10'
p1414
sg9
S'2013-03-15'
p1415
sg11
S'2013-03-14'
p1416
sa(dp1417
g2
S'Free International Lunch-Noon @ Wesley'
p1418
sg4
I00
sg5
g6
sg7
S'2013-11-10'
p1419
sg9
S'2013-03-14T13:00:00-05:00'
p1420
sg11
S'2013-03-14T12:00:00-05:00'
p1421
sa(dp1422
g2
S'AKA Youth Summit with Girl Scouts Beyone Bars - Carpool 2p @ ACAC'
p1423
sg4
I00
sg5
g6
sg7
S'2013-11-10'
p1424
sg9
S'2013-03-14T14:15:00-05:00'
p1425
sg11
S'2013-03-14T14:00:00-05:00'
p1426
sg23
S'Acac'
p1427
sa(dp1428
g2
S'HKN Induction - 5p @ ACAC Chouteau'
p1429
sg4
I00
sg5
g6
sg7
S'2013-11-10'
p1430
sg9
S'2013-03-14T18:00:00-05:00'
p1431
sg11
S'2013-03-14T17:00:00-05:00'
p1432
sa(dp1433
g2
S'Relay for Life - 6p-Midnight @ Thomas Plaza'
p1434
sg4
I00
sg5
g6
sg7
S'2013-11-10'
p1435
sg9
S'2013-03-15T00:00:00-05:00'
p1436
sg11
S'2013-03-14T18:00:00-05:00'
p1437
sa(dp1438
g2
S'Chi Alpha Friendship Feast-6p @ 1112 S Evanston'
p1439
sg4
I00
sg5
g6
sg7
S'2013-11-10'
p1440
sg9
S'2013-03-14T20:00:00-05:00'
p1441
sg11
S'2013-03-14T18:00:00-05:00'
p1442
sa(dp1443
g2
S'CUSA Basketball Championship @ BOK Center'
p1444
sg4
I00
sg5
g6
sg7
S'2013-11-10'
p1445
sg9
S'2013-03-16'
p1446
sg11
S'2013-03-15'
p1447
sa(dp1448
g2
S'Friday Noon Lunch - Noon @ Wesley'
p1449
sg4
I00
sg5
g6
sg7
S'2013-11-10'
p1450
sg9
S'2013-03-15T13:00:00-05:00'
p1451
sg11
S'2013-03-15T12:00:00-05:00'
p1452
sa(dp1453
g2
S'MAA Meeting - Noon @ Kep U1'
p1454
sg4
I00
sg5
g6
sg7
S'2013-11-10'
p1455
sg9
S'2013-03-15T13:00:00-05:00'
p1456
sg11
S'2013-03-15T12:00:00-05:00'
p1457
sa(dp1458
g2
S'Nurses Christian Fellowship Meeting - Noon @ Helmerich 105'
p1459
sg4
I00
sg5
g6
sg7
S'2013-11-10'
p1460
sg9
S'2013-03-15T13:00:00-05:00'
p1461
sg11
S'2013-03-15T12:00:00-05:00'
p1462
sa(dp1463
g2
S'Stations of the Cross & Meatless Dinner-5p @ Catholic Newman Center'
p1464
sg4
I00
sg5
g6
sg7
S'2013-11-10'
p1465
sg9
S'2013-03-15T18:00:00-05:00'
p1466
sg11
S'2013-03-15T17:00:00-05:00'
p1467
sa(dp1468
g2
S'Worship at Wesley-7p @ Wesley'
p1469
sg4
I00
sg5
g6
sg7
S'2013-11-10'
p1470
sg9
S'2013-03-15T20:00:00-05:00'
p1471
sg11
S'2013-03-15T19:00:00-05:00'
p1472
sa(dp1473
g2
S'AKA Pretty Girl Stompdown Competition - 8p-1a @ Renaissance Hotel'
p1474
sg4
I00
sg5
g6
sg7
S'2013-11-10'
p1475
sg9
S'2013-03-16T00:00:00-05:00'
p1476
sg11
S'2013-03-15T20:00:00-05:00'
p1477
sa(dp1478
g2
S'Future Alumni Council Applications Due: www.tualumni.com/facapplication'
p1479
sg4
I00
sg5
g6
sg7
S'2013-11-10'
p1480
sg9
S'2013-03-17'
p1481
sg11
S'2013-03-16'
p1482
sa(dp1483
g2
S'CUSA Basketball Championship @ BOK Center'
p1484
sg4
I00
sg5
g6
sg7
S'2013-11-10'
p1485
sg9
S'2013-03-17'
p1486
sg11
S'2013-03-16'
p1487
sa(dp1488
g2
S'Tabletop Gaming Club - 2-6p @ The Caf'
p1489
sg4
I00
sg5
g6
sg7
S'2013-11-10'
p1490
sg9
S'2013-03-16T17:00:00-05:00'
p1491
sg11
S'2013-03-16T14:00:00-05:00'
p1492
sa(dp1493
g2
S"St. Patrick's Day"
p1494
sg4
I00
sg5
g6
sg7
S'2013-11-10'
p1495
sg9
S'2013-03-18'
p1496
sg11
S'2013-03-17'
p1497
sa(dp1498
g2
S'Mass-8p @ Catholic Newman Center'
p1499
sg4
I00
sg5
g6
sg7
S'2013-11-10'
p1500
sg9
S'2013-03-17T21:00:00-05:00'
p1501
sg11
S'2013-03-17T20:00:00-05:00'
p1502
sa(dp1503
g2
S'Spring Break'
p1504
sg4
I00
sg5
g6
sg7
S'2013-11-10'
p1505
sg9
S'2013-03-23'
p1506
sg11
S'2013-03-18'
p1507
sa(dp1508
g2
S'Cabinet Meeting - 5p @ ACAC'
p1509
sg4
I00
sg5
g6
sg7
S'2013-11-10'
p1510
sg9
S'2013-03-19T17:45:00-05:00'
p1511
sg11
S'2013-03-19T17:00:00-05:00'
p1512
sg23
S'ACAC '
p1513
sa(dp1514
g2
S'SA Senate Meeting - 9p @ John Rogers'
p1515
sg4
I00
sg5
g6
sg7
S'2013-11-10'
p1516
sg9
S'2013-03-19T22:00:00-05:00'
p1517
sg11
S'2013-03-19T21:00:00-05:00'
p1518
sa(dp1519
g2
S'Cricket Club Tournament - 10a-11p @ Skelly Field'
p1520
sg4
I00
sg5
g6
sg7
S'2013-11-10'
p1521
sg9
S'2013-03-23T23:00:00-05:00'
p1522
sg11
S'2013-03-23T10:00:00-05:00'
p1523
sa(dp1524
g2
S'Palm Sunday'
p1525
sg4
I00
sg5
g6
sg7
S'2013-11-10'
p1526
sg9
S'2013-03-25'
p1527
sg11
S'2013-03-24'
p1528
sa(dp1529
g2
S'Mass-8p @ Catholic Newman Center'
p1530
sg4
I00
sg5
g6
sg7
S'2013-11-10'
p1531
sg9
S'2013-03-24T21:00:00-05:00'
p1532
sg11
S'2013-03-24T20:00:00-05:00'
p1533
sa(dp1534
g2
S'Free Lunch - 11am-1p @ BCM'
p1535
sg4
I00
sg5
g6
sg7
S'2013-11-10'
p1536
sg9
S'2013-03-25T13:00:00-05:00'
p1537
sg11
S'2013-03-25T11:00:00-05:00'
p1538
sa(dp1539
g2
S'Passover Begins'
p1540
sg4
I00
sg5
g6
sg7
S'2013-11-10'
p1541
sg9
S'2013-03-27'
p1542
sg11
S'2013-03-26'
p1543
sa(dp1544
g2
S'Tuesday Lunch - 11:30a-1p @ Catholic Newman Center'
p1545
sg4
I00
sg5
g6
sg7
S'2013-11-10'
p1546
sg9
S'2013-03-26T12:30:00-05:00'
p1547
sg11
S'2013-03-26T11:30:00-05:00'
p1548
sa(dp1549
g2
S'Cabinet Meeting - 5p @ ACAC'
p1550
sg4
I00
sg5
g6
sg7
S'2013-11-10'
p1551
sg9
S'2013-03-26T17:45:00-05:00'
p1552
sg11
S'2013-03-26T17:00:00-05:00'
p1553
sg23
S'ACAC '
p1554
sa(dp1555
g2
S'RUF Exodus Study - 7:30p @ Tyrrell Hall'
p1556
sg4
I00
sg5
g6
sg7
S'2013-11-10'
p1557
sg9
S'2013-03-26T20:30:00-05:00'
p1558
sg11
S'2013-03-26T19:30:00-05:00'
p1559
sa(dp1560
g2
S'Imagine Dragons Concert free with Student ID - 8p @ Reynolds Center'
p1561
sg4
I00
sg5
g6
sg7
S'2013-11-10'
p1562
sg9
S'2013-03-26T21:30:00-05:00'
p1563
sg11
S'2013-03-26T20:00:00-05:00'
p1564
sg23
S'Reynolds Center'
p1565
sa(dp1566
g2
S'SA Senate Meeting - 9p @ John Rogers'
p1567
sg4
I00
sg5
g6
sg7
S'2013-11-10'
p1568
sg9
S'2013-03-26T22:00:00-05:00'
p1569
sg11
S'2013-03-26T21:00:00-05:00'
p1570
sa(dp1571
g2
S'Fellowship of Christian Athletes-9p @ Case Center'
p1572
sg4
I00
sg5
g6
sg7
S'2013-11-10'
p1573
sg9
S'2013-03-26T22:00:00-05:00'
p1574
sg11
S'2013-03-26T21:00:00-05:00'
p1575
sa(dp1576
g2
S'Leaders INC Food from Around the World-Noon @ Holmes'
p1577
sg4
I00
sg5
g6
sg7
S'2013-11-10'
p1578
sg9
S'2013-03-27T13:00:00-05:00'
p1579
sg11
S'2013-03-27T12:00:00-05:00'
p1580
sa(dp1581
g2
S'Veggie Lunch - Noon @ Little Blue House'
p1582
sg4
I00
sg5
g6
sg7
S'2013-11-10'
p1583
sg9
S'2013-03-27T13:00:00-05:00'
p1584
sg11
S'2013-03-27T12:00:00-05:00'
p1585
sa(dp1586
g2
S'English Corner Tutoring - 7:30p @ ACAC'
p1587
sg4
I00
sg5
g6
sg7
S'2013-11-10'
p1588
sg9
S'2013-03-27T16:30:00-05:00'
p1589
sg11
S'2013-03-27T15:30:00-05:00'
p1590
sa(dp1591
g2
S'Freethinkers at TU Meeting - 6p @ ACAC'
p1592
sg4
I00
sg5
g6
sg7
S'2013-11-10'
p1593
sg9
S'2013-03-27T19:00:00-05:00'
p1594
sg11
S'2013-03-27T18:00:00-05:00'
p1595
sa(dp1596
g2
S'AED OU Medical School Info Session w/ Hideaway - 6p @ Kep M1'
p1597
sg4
I00
sg5
g6
sg7
S'2013-11-10'
p1598
sg9
S'2013-03-27T19:00:00-05:00'
p1599
sg11
S'2013-03-27T18:00:00-05:00'
p1600
sg23
S'Kep M1'
p1601
sa(dp1602
g2
S'Student Investment Group Speaker Series - 6p @ Helmerich 219'
p1603
sg4
I00
sg5
g6
sg7
S'2013-11-10'
p1604
sg9
S'2013-03-27T21:00:00-05:00'
p1605
sg11
S'2013-03-27T18:00:00-05:00'
p1606
sa(dp1607
g2
S'Epidermal Electronics Lecture  - 6:30p @ Tyrrell Hall Auditorium'
p1608
sg4
I00
sg5
g6
sg7
S'2013-11-10'
p1609
sg9
S'2013-03-27T19:30:00-05:00'
p1610
sg11
S'2013-03-27T18:30:00-05:00'
p1611
sa(dp1612
g2
S'Engineers Without Borders Silent Auction-7:30p @ Tulsa Garden Center'
p1613
sg4
I00
sg5
g6
sg7
S'2013-11-10'
p1614
sg9
S'2013-03-27T20:30:00-05:00'
p1615
sg11
S'2013-03-27T19:30:00-05:00'
p1616
sa(dp1617
g2
S'Holy Thursday'
p1618
sg4
I00
sg5
g6
sg7
S'2013-11-10'
p1619
sg9
S'2013-03-29'
p1620
sg11
S'2013-03-28'
p1621
sa(dp1622
g2
S'Free International Lunch-Noon @ Wesley'
p1623
sg4
I00
sg5
g6
sg7
S'2013-11-10'
p1624
sg9
S'2013-03-28T13:00:00-05:00'
p1625
sg11
S'2013-03-28T12:00:00-05:00'
p1626
sa(dp1627
g2
S'Living the Last Supper - UMC @ 6:30p'
p1628
sg4
I00
sg5
g6
sg7
S'2013-11-10'
p1629
sg9
S'2013-03-28T17:15:00-05:00'
p1630
sg11
S'2013-03-28T16:15:00-05:00'
p1631
sa(dp1632
g2
S'Chi Alpha Friendship Feast-6p @ 1112 S Evanston'
p1633
sg4
I00
sg5
g6
sg7
S'2013-11-10'
p1634
sg9
S'2013-03-28T20:00:00-05:00'
p1635
sg11
S'2013-03-28T18:00:00-05:00'
p1636
sa(dp1637
g2
S'Last Lecture, Nancy Eggen - 7:30p @ ACAC Chouteau'
p1638
sg4
I00
sg5
g6
sg7
S'2013-11-10'
p1639
sg9
S'2013-03-28T19:45:00-05:00'
p1640
sg11
S'2013-03-28T18:45:00-05:00'
p1641
sa(dp1642
g2
S'Good Friday'
p1643
sg4
I00
sg5
g6
sg7
S'2013-11-10'
p1644
sg9
S'2013-03-30'
p1645
sg11
S'2013-03-29'
p1646
sa(dp1647
g2
S'Junior Visit Day - ACAC'
p1648
sg4
I00
sg5
g6
sg7
S'2013-11-10'
p1649
sg9
S'2013-03-30'
p1650
sg11
S'2013-03-29'
p1651
sa(dp1652
g2
S"IEEE Meeting w/ Papa John's - Noon @ Kep M1"
p1653
sg4
I00
sg5
g6
sg7
S'2013-11-10'
p1654
sg9
S'2013-03-29T13:00:00-05:00'
p1655
sg11
S'2013-03-29T12:00:00-05:00'
p1656
sg23
S'Kep M1'
p1657
sa(dp1658
g2
S'Friday Noon Lunch - Noon @ Wesley'
p1659
sg4
I00
sg5
g6
sg7
S'2013-11-10'
p1660
sg9
S'2013-03-29T13:00:00-05:00'
p1661
sg11
S'2013-03-29T12:00:00-05:00'
p1662
sa(dp1663
g2
S'Nurses Christian Fellowship Meeting - Noon @ Helmerich 105'
p1664
sg4
I00
sg5
g6
sg7
S'2013-11-10'
p1665
sg9
S'2013-03-29T13:00:00-05:00'
p1666
sg11
S'2013-03-29T12:00:00-05:00'
p1667
sa(dp1668
g2
S'Living Stations of the Cross - 12:05p @ The Old U'
p1669
sg4
I00
sg5
g6
sg7
S'2013-11-10'
p1670
sg9
S'2013-03-29T13:05:00-05:00'
p1671
sg11
S'2013-03-29T12:05:00-05:00'
p1672
sa(dp1673
g2
S'TU Softball Game - 1p'
p1674
sg4
I00
sg5
g6
sg7
S'2013-11-10'
p1675
sg9
S'2013-03-29T14:00:00-05:00'
p1676
sg11
S'2013-03-29T13:00:00-05:00'
p1677
sa(dp1678
g2
S'TU Softball Game - 3p'
p1679
sg4
I00
sg5
g6
sg7
S'2013-11-10'
p1680
sg9
S'2013-03-29T16:00:00-05:00'
p1681
sg11
S'2013-03-29T15:00:00-05:00'
p1682
sa(dp1683
g2
S'Holi - Festival of Colors - 5p @ Harwell Field'
p1684
sg4
I00
sg5
g6
sg7
S'2013-11-10'
p1685
sg9
S'2013-03-29T18:00:00-05:00'
p1686
sg11
S'2013-03-29T17:00:00-05:00'
p1687
sg23
S'Great Hall'
p1688
sa(dp1689
g2
S'Meatless Dinner-5:30p @ Catholic Newman Center'
p1690
sg4
I00
sg5
g6
sg7
S'2013-11-10'
p1691
sg9
S'2013-03-29T18:30:00-05:00'
p1692
sg11
S'2013-03-29T17:30:00-05:00'
p1693
sa(dp1694
g2
S'Good Friday Tenebrae - 6:30 @ UMC'
p1695
sg4
I00
sg5
g6
sg7
S'2013-11-10'
p1696
sg9
S'2013-03-29T19:30:00-05:00'
p1697
sg11
S'2013-03-29T18:30:00-05:00'
p1698
sa(dp1699
g2
S'Food Inc. Movie Showing - 7p @ Lorton 207'
p1700
sg4
I00
sg5
g6
sg7
S'2013-11-10'
p1701
sg9
S'2013-03-29T20:00:00-05:00'
p1702
sg11
S'2013-03-29T19:00:00-05:00'
p1703
sa(dp1704
g2
S'Worship at Wesley-7p @ Wesley'
p1705
sg4
I00
sg5
g6
sg7
S'2013-11-10'
p1706
sg9
S'2013-03-29T20:00:00-05:00'
p1707
sg11
S'2013-03-29T19:00:00-05:00'
p1708
sa(dp1709
g2
S'Tenebrae - 5:30a @ Newman'
p1710
sg4
I00
sg5
g6
sg7
S'2013-11-10'
p1711
sg9
S'2013-03-30T06:30:00-05:00'
p1712
sg11
S'2013-03-30T05:30:00-05:00'
p1713
sa(dp1714
g2
S'Softball Game w/ free breakfast burritos & prizes - 11am @ Collins Softball Complex'
p1715
sg4
I00
sg5
g6
sg7
S'2013-11-10'
p1716
sg9
S'2013-03-30T12:45:00-05:00'
p1717
sg11
S'2013-03-30T11:45:00-05:00'
p1718
sa(dp1719
g2
S'Tabletop Gaming Club - 2-6p @ The Caf'
p1720
sg4
I00
sg5
g6
sg7
S'2013-11-10'
p1721
sg9
S'2013-03-30T17:00:00-05:00'
p1722
sg11
S'2013-03-30T14:00:00-05:00'
p1723
sa(dp1724
g2
S"Hobbit Movie Night w/'Second Breakfast' - 7p @ Wesley"
p1725
sg4
I00
sg5
g6
sg7
S'2013-11-10'
p1726
sg9
S'2013-03-30T20:00:00-05:00'
p1727
sg11
S'2013-03-30T19:00:00-05:00'
p1728
sa(dp1729
g2
S'Persian Night w/ free buffet - 7p @ ACAC Great Hall'
p1730
sg4
I00
sg5
g6
sg7
S'2013-11-10'
p1731
sg9
S'2013-03-30T22:00:00-05:00'
p1732
sg11
S'2013-03-30T19:00:00-05:00'
p1733
sa(dp1734
g2
S'Easter Vigil Mass & Party - 10p @ Catholic Newman Center'
p1735
sg4
I00
sg5
g6
sg7
S'2013-11-10'
p1736
sg9
S'2013-03-30T23:15:00-05:00'
p1737
sg11
S'2013-03-30T22:00:00-05:00'
p1738
sa(dp1739
g2
S'Easter Sunday'
p1740
sg4
I00
sg5
g6
sg7
S'2013-11-10'
p1741
sg9
S'2013-04-01'
p1742
sg11
S'2013-03-31'
p1743
sa(dp1744
g2
S'Mass-11a & 8p @ Catholic Newman Center'
p1745
sg4
I00
sg5
g6
sg7
S'2013-11-10'
p1746
sg9
S'2013-03-31T21:00:00-05:00'
p1747
sg11
S'2013-03-31T20:00:00-05:00'
p1748
sa(dp1749
g2
S'Springfest Week'
p1750
sg4
I00
sg5
g6
sg7
S'2013-11-10'
p1751
sg9
S'2013-04-02'
p1752
sg11
S'2013-04-01'
p1753
sa(dp1754
g2
S"April Fool's Day"
p1755
sg4
I00
sg5
g6
sg7
S'2013-11-10'
p1756
sg9
S'2013-04-02'
p1757
sg11
S'2013-04-01'
p1758
sa(dp1759
g2
S'Free Lunch - 11am-1p @ BCM'
p1760
sg4
I00
sg5
g6
sg7
S'2013-11-10'
p1761
sg9
S'2013-04-01T13:00:00-05:00'
p1762
sg11
S'2013-04-01T11:00:00-05:00'
p1763
sa(dp1764
g2
S'Treats & Display, Delta Sigma Theta - noon @ ACAC Lobby'
p1765
sg4
I00
sg5
g6
sg7
S'2013-11-10'
p1766
sg9
S'2013-04-01T13:00:00-05:00'
p1767
sg11
S'2013-04-01T12:00:00-05:00'
p1768
sa(dp1769
g2
S'Springfest Alice in Wonderland Lawn Party - 1p @ Old U'
p1770
sg4
I00
sg5
g6
sg7
S'2013-11-10'
p1771
sg9
S'2013-04-01T16:00:00-05:00'
p1772
sg11
S'2013-04-01T13:00:00-05:00'
p1773
sg23
S'Wonderland Lawn'
p1774
sa(dp1775
g2
S'Blood Drive - Reynolds Center @ 10a-'
p1776
sg4
I00
sg5
g6
sg7
S'2013-11-10'
p1777
sg9
S'2013-04-01T15:00:00-05:00'
p1778
sg11
S'2013-04-01T14:00:00-05:00'
p1779
sa(dp1780
g2
S'Springfest Lilo and Stitch Luau - 7p @ New U'
p1781
sg4
I00
sg5
g6
sg7
S'2013-11-10'
p1782
sg9
S'2013-04-01T22:00:00-05:00'
p1783
sg11
S'2013-04-01T19:00:00-05:00'
p1784
sa(dp1785
g2
S'Tuesday Lunch - 11:30a-1p @ Catholic Newman Center'
p1786
sg4
I00
sg5
g6
sg7
S'2013-11-10'
p1787
sg9
S'2013-04-02T12:30:00-05:00'
p1788
sg11
S'2013-04-02T11:30:00-05:00'
p1789
sa(dp1790
g2
S'Springfest Mulan Training Camp - 1p @ Reynolds Main Floor'
p1791
sg4
I00
sg5
g6
sg7
S'2013-11-10'
p1792
sg9
S'2013-04-02T16:00:00-05:00'
p1793
sg11
S'2013-04-02T13:00:00-05:00'
p1794
sa(dp1795
g2
S'How to live Plastic Free - 7p @ ACAC Great Hall B'
p1796
sg4
I00
sg5
g6
sg7
S'2013-11-10'
p1797
sg9
S'2013-04-02T20:00:00-05:00'
p1798
sg11
S'2013-04-02T19:00:00-05:00'
p1799
sg23
S'Great Hall'
p1800
sa(dp1801
g2
S'Springfest Princess and the Frog Carnival - 7p @ Reynolds Main Floor'
p1802
sg4
I00
sg5
g6
sg7
S'2013-11-10'
p1803
sg9
S'2013-04-02T22:00:00-05:00'
p1804
sg11
S'2013-04-02T19:00:00-05:00'
p1805
sa(dp1806
g2
S'RUF Exodus Study - 7:30p @ Tyrrell Hall'
p1807
sg4
I00
sg5
g6
sg7
S'2013-11-10'
p1808
sg9
S'2013-04-02T20:30:00-05:00'
p1809
sg11
S'2013-04-02T19:30:00-05:00'
p1810
sa(dp1811
g2
S'Crimson Lounge - 8p @ Sharp Chapel'
p1812
sg4
I00
sg5
g6
sg7
S'2013-11-10'
p1813
sg9
S'2013-04-02T21:00:00-05:00'
p1814
sg11
S'2013-04-02T20:00:00-05:00'
p1815
sa(dp1816
g2
S'Fellowship of Christian Athletes-9p @ Case Center'
p1817
sg4
I00
sg5
g6
sg7
S'2013-11-10'
p1818
sg9
S'2013-04-02T22:00:00-05:00'
p1819
sg11
S'2013-04-02T21:00:00-05:00'
p1820
sa(dp1821
g2
S'SA Senate Meeting - 9:15p @ John Rogers'
p1822
sg4
I00
sg5
g6
sg7
S'2013-11-10'
p1823
sg9
S'2013-04-03T03:15:00Z'
p1824
sg11
S'2013-04-03T02:15:00Z'
p1825
sa(dp1826
g2
S'TUSSLHA Monthly Meeting - 12:15p @ Mary Chapman Center'
p1827
sg4
I00
sg5
g6
sg7
S'2013-11-10'
p1828
sg9
S'2013-04-03T13:00:00-05:00'
p1829
sg11
S'2013-04-03T12:00:00-05:00'
p1830
sa(dp1831
g2
S'Veggie Lunch - Noon @ Little Blue House'
p1832
sg4
I00
sg5
g6
sg7
S'2013-11-10'
p1833
sg9
S'2013-04-03T13:00:00-05:00'
p1834
sg11
S'2013-04-03T12:00:00-05:00'
p1835
sa(dp1836
g2
S'AAPG Meeting - Noon @ Kep M8'
p1837
sg4
I00
sg5
g6
sg7
S'2013-11-10'
p1838
sg9
S'2013-04-03T13:00:00-05:00'
p1839
sg11
S'2013-04-03T12:00:00-05:00'
p1840
sa(dp1841
g2
S'English Corner Tutoring - 7:30p @ ACAC'
p1842
sg4
I00
sg5
g6
sg7
S'2013-11-10'
p1843
sg9
S'2013-04-03T16:30:00-05:00'
p1844
sg11
S'2013-04-03T15:30:00-05:00'
p1845
sa(dp1846
g2
S'Student Investment Group Speaker Series - 6p @ Helmerich 219'
p1847
sg4
I00
sg5
g6
sg7
S'2013-11-10'
p1848
sg9
S'2013-04-03T21:00:00-05:00'
p1849
sg11
S'2013-04-03T18:00:00-05:00'
p1850
sa(dp1851
g2
S"International Women's Panel - 6p @ ACAC Alcove"
p1852
sg4
I00
sg5
g6
sg7
S'2013-11-10'
p1853
sg9
S'2013-04-03T19:00:00-05:00'
p1854
sg11
S'2013-04-03T18:00:00-05:00'
p1855
sg23
S'Acac Alcove'
p1856
sa(dp1857
g2
S'Springfest Toy Story Pizza Planet Arcade - 7p @ ACAC'
p1858
sg4
I00
sg5
g6
sg7
S'2013-11-10'
p1859
sg9
S'2013-04-03T22:00:00-05:00'
p1860
sg11
S'2013-04-03T19:00:00-05:00'
p1861
sa(dp1862
g2
S'Happy Birthday Uncle Stead!'
p1863
sg4
I00
sg5
g6
sg7
S'2013-11-10'
p1864
sg9
S'2013-04-05'
p1865
sg11
S'2013-04-04'
p1866
sa(dp1867
g2
S'Free International Lunch-Noon @ Wesley'
p1868
sg4
I00
sg5
g6
sg7
S'2013-11-10'
p1869
sg9
S'2013-04-04T13:00:00-05:00'
p1870
sg11
S'2013-04-04T12:00:00-05:00'
p1871
sa(dp1872
g2
S'Springfest Cars Route 66 Event - 1p @ Reynolds'
p1873
sg4
I00
sg5
g6
sg7
S'2013-11-10'
p1874
sg9
S'2013-04-04T16:00:00-05:00'
p1875
sg11
S'2013-04-04T13:00:00-05:00'
p1876
sa(dp1877
g2
S'Chi Alpha Friendship Feast-6p @ 1112 S Evanston'
p1878
sg4
I00
sg5
g6
sg7
S'2013-11-10'
p1879
sg9
S'2013-04-04T20:00:00-05:00'
p1880
sg11
S'2013-04-04T18:00:00-05:00'
p1881
sa(dp1882
g2
S'Faith and Food - 6p @ Mayo SAC'
p1883
sg4
I00
sg5
g6
sg7
S'2013-11-10'
p1884
sg9
S'2013-04-04T19:00:00-05:00'
p1885
sg11
S'2013-04-04T18:00:00-05:00'
p1886
sg23
S'Mayo Sac'
p1887
sa(dp1888
g2
S'Springfest Disney Movie Marathon - 7p @ Reynolds'
p1889
sg4
I00
sg5
g6
sg7
S'2013-11-10'
p1890
sg9
S'2013-04-04T22:00:00-05:00'
p1891
sg11
S'2013-04-04T19:00:00-05:00'
p1892
sa(dp1893
g2
S'Presidential Lecture Series: Robert Sapolsky - 7:30p @ ACAC'
p1894
sg4
I00
sg5
g6
sg7
S'2013-11-10'
p1895
sg9
S'2013-04-04T20:30:00-05:00'
p1896
sg11
S'2013-04-04T19:30:00-05:00'
p1897
sa(dp1898
g2
S'Friday Noon Lunch - Noon @ Wesley'
p1899
sg4
I00
sg5
g6
sg7
S'2013-11-10'
p1900
sg9
S'2013-04-05T13:00:00-05:00'
p1901
sg11
S'2013-04-05T12:00:00-05:00'
p1902
sa(dp1903
g2
S'ACM Meeting Free Lunch - Noon @ Kep U1'
p1904
sg4
I00
sg5
g6
sg7
S'2013-11-10'
p1905
sg9
S'2013-04-05T13:00:00-05:00'
p1906
sg11
S'2013-04-05T12:00:00-05:00'
p1907
sa(dp1908
g2
S'Springfest Cinderella Carriage Rides - 1p @ Old U'
p1909
sg4
I00
sg5
g6
sg7
S'2013-11-10'
p1910
sg9
S'2013-04-05T16:00:00-05:00'
p1911
sg11
S'2013-04-05T13:00:00-05:00'
p1912
sa(dp1913
g2
S'Blood Drive - 3-7p @ ACAC Gallery'
p1914
sg4
I00
sg5
g6
sg7
S'2013-11-10'
p1915
sg9
S'2013-04-05T19:00:00-05:00'
p1916
sg11
S'2013-04-05T15:00:00-05:00'
p1917
sg23
S'ACAC - GALLERY'
p1918
sa(dp1919
g2
S'Lanbrew LAN #5 - 5p-5a @ Mayo SAC'
p1920
sg4
I00
sg5
g6
sg7
S'2013-11-10'
p1921
sg9
S'2013-04-06T05:00:00-05:00'
p1922
sg11
S'2013-04-05T17:00:00-05:00'
p1923
sg23
S'Mayo Sac'
p1924
sa(dp1925
g2
S'Improvathon - 6-9p @ Kendall Hall 110'
p1926
sg4
I00
sg5
g6
sg7
S'2013-11-10'
p1927
sg9
S'2013-04-05T21:00:00-05:00'
p1928
sg11
S'2013-04-05T18:00:00-05:00'
p1929
sg23
S'Kendall Hall'
p1930
sa(dp1931
g2
S'Delta Sigma Theta Budgeting Workshop - 7p @ ACAC Alcove'
p1932
sg4
I00
sg5
g6
sg7
S'2013-11-10'
p1933
sg9
S'2013-04-05T20:00:00-05:00'
p1934
sg11
S'2013-04-05T19:00:00-05:00'
p1935
sa(dp1936
g2
S'Worship at Wesley-7p @ Wesley'
p1937
sg4
I00
sg5
g6
sg7
S'2013-11-10'
p1938
sg9
S'2013-04-05T20:00:00-05:00'
p1939
sg11
S'2013-04-05T19:00:00-05:00'
p1940
sa(dp1941
g2
S'Fisher South Lobby - 9p @ Fisher South Lobby'
p1942
sg4
I00
sg5
g6
sg7
S'2013-11-10'
p1943
sg9
S'2013-04-06T00:00:00-05:00'
p1944
sg11
S'2013-04-05T21:00:00-05:00'
p1945
sg23
S'Fisher South Lobby'
p1946
sa(dp1947
g2
S'Springfest Cinderella Ball - 9p @ Old U'
p1948
sg4
I00
sg5
g6
sg7
S'2013-11-10'
p1949
sg9
S'2013-04-05T23:00:00-05:00'
p1950
sg11
S'2013-04-05T21:00:00-05:00'
p1951
sa(dp1952
g2
S'Improvathon - 12a-3a @ Kendall Hall Steps'
p1953
sg4
I00
sg5
g6
sg7
S'2013-11-10'
p1954
sg9
S'2013-04-06T03:00:00-05:00'
p1955
sg11
S'2013-04-06T00:00:00-05:00'
p1956
sg23
S'Kendall Hall'
p1957
sa(dp1958
g2
S'Improvathon - 3a-6a @ PCDC Smoothie Bar Patio'
p1959
sg4
I00
sg5
g6
sg7
S'2013-11-10'
p1960
sg9
S'2013-04-06T06:00:00-05:00'
p1961
sg11
S'2013-04-06T03:00:00-05:00'
p1962
sg23
S'Pcdc'
p1963
sa(dp1964
g2
S'Improvathon - 3-6a @ McFarlin Steps'
p1965
sg4
I00
sg5
g6
sg7
S'2013-11-10'
p1966
sg9
S'2013-04-06T09:00:00-05:00'
p1967
sg11
S'2013-04-06T06:00:00-05:00'
p1968
sa(dp1969
g2
S'Improvathon - 9a-Noon @ Front of Caf'
p1970
sg4
I00
sg5
g6
sg7
S'2013-11-10'
p1971
sg9
S'2013-04-06T12:00:00-05:00'
p1972
sg11
S'2013-04-06T09:00:00-05:00'
p1973
sa(dp1974
g2
S'SWE Mother/Daughter TEA-10a @ University School'
p1975
sg4
I00
sg5
g6
sg7
S'2013-11-10'
p1976
sg9
S'2013-04-06T14:00:00-05:00'
p1977
sg11
S'2013-04-06T10:00:00-05:00'
p1978
sa(dp1979
g2
S'Improvathon - Noon -3p @ Lorton PAC'
p1980
sg4
I00
sg5
g6
sg7
S'2013-11-10'
p1981
sg9
S'2013-04-06T15:00:00-05:00'
p1982
sg11
S'2013-04-06T12:00:00-05:00'
p1983
sg23
S'Lorton'
p1984
sa(dp1985
g2
S'Spring Football Game and Dedication - Noon @ Football Stadium'
p1986
sg4
I00
sg5
g6
sg7
S'2013-11-10'
p1987
sg9
S'2013-04-06T15:00:00-05:00'
p1988
sg11
S'2013-04-06T12:00:00-05:00'
p1989
sa(dp1990
g2
S'Delta Sigma Theta Volleyball Tournament - Noon @ Fitness Center'
p1991
sg4
I00
sg5
g6
sg7
S'2013-11-10'
p1992
sg9
S'2013-04-06T13:00:00-05:00'
p1993
sg11
S'2013-04-06T12:00:00-05:00'
p1994
sa(dp1995
g2
S'Tabletop Gaming Club - 2-6p @ The Caf'
p1996
sg4
I00
sg5
g6
sg7
S'2013-11-10'
p1997
sg9
S'2013-04-06T17:00:00-05:00'
p1998
sg11
S'2013-04-06T14:00:00-05:00'
p1999
sa(dp2000
g2
S'Improvathon - 3p-6p @ Samson Plaza'
p2001
sg4
I00
sg5
g6
sg7
S'2013-11-10'
p2002
sg9
S'2013-04-06T18:00:00-05:00'
p2003
sg11
S'2013-04-06T15:00:00-05:00'
p2004
sa(dp2005
g2
S'UTSAV Festival of India - 5:30p @ ACAC Great Hall'
p2006
sg4
I00
sg5
g6
sg7
S'2013-11-10'
p2007
sg9
S'2013-04-06T19:00:00-05:00'
p2008
sg11
S'2013-04-06T17:30:00-05:00'
p2009
sa(dp2010
g2
S'Delta Sigma Theta Charity Bash - 10pm @ Mayo SAC'
p2011
sg4
I00
sg5
g6
sg7
S'2013-11-10'
p2012
sg9
S'2013-04-07T02:00:00-05:00'
p2013
sg11
S'2013-04-06T22:00:00-05:00'
p2014
sg23
S'Acac Alcove'
p2015
sa(dp2016
g2
S'Mass-11a & 8p @ Catholic Newman Center'
p2017
sg4
I00
sg5
g6
sg7
S'2013-11-10'
p2018
sg9
S'2013-04-07T21:00:00-05:00'
p2019
sg11
S'2013-04-07T20:00:00-05:00'
p2020
sa(dp2021
g2
S'Blood Drive - 11a-3p @ ACAC Gallery'
p2022
sg4
I00
sg5
g6
sg7
S'2013-11-10'
p2023
sg9
S'2013-04-08T15:00:00-05:00'
p2024
sg11
S'2013-04-08T11:00:00-05:00'
p2025
sg23
S'ACAC - GALLERY'
p2026
sa(dp2027
g2
S'Free Lunch - 11am-1p @ BCM'
p2028
sg4
I00
sg5
g6
sg7
S'2013-11-10'
p2029
sg9
S'2013-04-08T13:00:00-05:00'
p2030
sg11
S'2013-04-08T11:00:00-05:00'
p2031
sa(dp2032
g2
S'Olympics Philanthropy Dinner - 5p @ Kappa Sigma Fraternity'
p2033
sg4
I00
sg5
g6
sg7
S'2013-11-10'
p2034
sg9
S'2013-04-08T19:00:00-05:00'
p2035
sg11
S'2013-04-08T17:00:00-05:00'
p2036
sa(dp2037
g2
S'Movie Night: Argo - 7:30p @ Mayo SAC'
p2038
sg4
I00
sg5
g6
sg7
S'2013-11-10'
p2039
sg9
S'2013-04-08T20:30:00-05:00'
p2040
sg11
S'2013-04-08T19:30:00-05:00'
p2041
sg23
S'Mayo Sac'
p2042
sa(dp2043
g2
S'Tuesday Lunch - 11:30a-1p @ Catholic Newman Center'
p2044
sg4
I00
sg5
g6
sg7
S'2013-11-10'
p2045
sg9
S'2013-04-09T12:30:00-05:00'
p2046
sg11
S'2013-04-09T11:30:00-05:00'
p2047
sa(dp2048
g2
S'Free thinkers Lunch & Learn - Noon @ ACAC Chouteau'
p2049
sg4
I00
sg5
g6
sg7
S'2013-11-10'
p2050
sg9
S'2013-04-09T13:00:00-05:00'
p2051
sg11
S'2013-04-09T12:00:00-05:00'
p2052
sa(dp2053
g2
S'Student Executive Forum - 1:30p @ Studio Blue'
p2054
sg4
I00
sg5
g6
sg7
S'2013-11-10'
p2055
sg9
S'2013-04-09T14:30:00-05:00'
p2056
sg11
S'2013-04-09T13:30:00-05:00'
p2057
sa(dp2058
g2
S'Cabinet Meeting - 5p @ ACAC'
p2059
sg4
I00
sg5
g6
sg7
S'2013-11-10'
p2060
sg9
S'2013-04-09T17:45:00-05:00'
p2061
sg11
S'2013-04-09T17:00:00-05:00'
p2062
sg23
S'ACAC '
p2063
sa(dp2064
g2
S'Phi Eta Sigma Induction - 5p @ ACAC'
p2065
sg4
I00
sg5
g6
sg7
S'2013-11-10'
p2066
sg9
S'2013-04-09T18:00:00-05:00'
p2067
sg11
S'2013-04-09T17:00:00-05:00'
p2068
sg23
S'Acac'
p2069
sa(dp2070
g2
S'SA Executive Elections Debate - 7p @ ACAC Gallery'
p2071
sg4
I00
sg5
g6
sg7
S'2013-11-10'
p2072
sg9
S'2013-04-09T20:00:00-05:00'
p2073
sg11
S'2013-04-09T19:00:00-05:00'
p2074
sg23
S'ACAC-Gallery'
p2075
sa(dp2076
g2
S'RUF Exodus Study - 7:30p @ Tyrrell Hall'
p2077
sg4
I00
sg5
g6
sg7
S'2013-11-10'
p2078
sg9
S'2013-04-09T20:30:00-05:00'
p2079
sg11
S'2013-04-09T19:30:00-05:00'
p2080
sa(dp2081
g2
S'SA Senate Meeting - 9p @ John Rogers'
p2082
sg4
I00
sg5
g6
sg7
S'2013-11-10'
p2083
sg9
S'2013-04-09T22:00:00-05:00'
p2084
sg11
S'2013-04-09T21:00:00-05:00'
p2085
sa(dp2086
g2
S'Fellowship of Christian Athletes-9p @ Case Center'
p2087
sg4
I00
sg5
g6
sg7
S'2013-11-10'
p2088
sg9
S'2013-04-09T22:00:00-05:00'
p2089
sg11
S'2013-04-09T21:00:00-05:00'
p2090
sa(dp2091
g2
S'SA Exec Elections'
p2092
sg4
I00
sg5
g6
sg7
S'2013-11-10'
p2093
sg9
S'2013-04-11'
p2094
sg11
S'2013-04-10'
p2095
sa(dp2096
g2
S'Dr. Kuzmarov Lecture - Noon @ Chapman Lecture Hall'
p2097
sg4
I00
sg5
g6
sg7
S'2013-11-10'
p2098
sg9
S'2013-04-10T13:00:00-05:00'
p2099
sg11
S'2013-04-10T12:00:00-05:00'
p2100
sa(dp2101
g2
S'Veggie Lunch - Noon @ Little Blue House'
p2102
sg4
I00
sg5
g6
sg7
S'2013-11-10'
p2103
sg9
S'2013-04-10T13:00:00-05:00'
p2104
sg11
S'2013-04-10T12:00:00-05:00'
p2105
sa(dp2106
g2
S'Collegiate Job Fair - 1-4p @ Reynolds'
p2107
sg4
I00
sg5
g6
sg7
S'2013-11-10'
p2108
sg9
S'2013-04-10T16:00:00-05:00'
p2109
sg11
S'2013-04-10T13:00:00-05:00'
p2110
sa(dp2111
g2
S'Business Lecture Series - 2p @ Helmerich 219'
p2112
sg4
I00
sg5
g6
sg7
S'2013-11-10'
p2113
sg9
S'2013-04-10T15:00:00-05:00'
p2114
sg11
S'2013-04-10T14:00:00-05:00'
p2115
sa(dp2116
g2
S'English Corner Tutoring - 7:30p @ ACAC'
p2117
sg4
I00
sg5
g6
sg7
S'2013-11-10'
p2118
sg9
S'2013-04-10T16:30:00-05:00'
p2119
sg11
S'2013-04-10T15:30:00-05:00'
p2120
sa(dp2121
g2
S'Freethinkers at TU Meeting - 6p @ ACAC'
p2122
sg4
I00
sg5
g6
sg7
S'2013-11-10'
p2123
sg9
S'2013-04-10T19:00:00-05:00'
p2124
sg11
S'2013-04-10T18:00:00-05:00'
p2125
sa(dp2126
g2
S'Student Investment Group New Security Presentations - 6p @ Helmerich'
p2127
sg4
I00
sg5
g6
sg7
S'2013-11-10'
p2128
sg9
S'2013-04-10T19:00:00-05:00'
p2129
sg11
S'2013-04-10T18:00:00-05:00'
p2130
sa(dp2131
g2
S'Business Lecture Series - 7p @ Helmerich 219'
p2132
sg4
I00
sg5
g6
sg7
S'2013-11-10'
p2133
sg9
S'2013-04-10T20:00:00-05:00'
p2134
sg11
S'2013-04-10T19:00:00-05:00'
p2135
sa(dp2136
g2
S'SA Exec Elections'
p2137
sg4
I00
sg5
g6
sg7
S'2013-11-10'
p2138
sg9
S'2013-04-12'
p2139
sg11
S'2013-04-11'
p2140
sa(dp2141
g2
S'FLI: Jeff Wilkie & Free Lunch - Noon @ Great Hall B'
p2142
sg4
I00
sg5
g6
sg7
S'2013-11-10'
p2143
sg9
S'2013-04-11T13:00:00-05:00'
p2144
sg11
S'2013-04-11T12:00:00-05:00'
p2145
sa(dp2146
g2
S'Free International Lunch-Noon @ Wesley'
p2147
sg4
I00
sg5
g6
sg7
S'2013-11-10'
p2148
sg9
S'2013-04-11T13:00:00-05:00'
p2149
sg11
S'2013-04-11T12:00:00-05:00'
p2150
sa(dp2151
g2
S'Sociobiologist Lecture - 2p & 7p @ Helmerich Room 219'
p2152
sg4
I00
sg5
g6
sg7
S'2013-11-10'
p2153
sg9
S'2013-04-11T15:00:00-05:00'
p2154
sg11
S'2013-04-11T14:00:00-05:00'
p2155
sa(dp2156
g2
S'Chi Alpha Friendship Feast-6p @ 1112 S Evanston'
p2157
sg4
I00
sg5
g6
sg7
S'2013-11-10'
p2158
sg9
S'2013-04-11T20:00:00-05:00'
p2159
sg11
S'2013-04-11T18:00:00-05:00'
p2160
sa(dp2161
g2
S'Rome, Open City - 6:30p @ Chapman Lecture Hall'
p2162
sg4
I00
sg5
g6
sg7
S'2013-11-10'
p2163
sg9
S'2013-04-11T19:30:00-05:00'
p2164
sg11
S'2013-04-11T18:30:00-05:00'
p2165
sa(dp2166
g2
S'Spring Awakening - 8p @ Lorton PC'
p2167
sg4
I00
sg5
g6
sg7
S'2013-11-10'
p2168
sg9
S'2013-04-11T21:00:00-05:00'
p2169
sg11
S'2013-04-11T20:00:00-05:00'
p2170
sa(dp2171
g2
S'Book Drive Ends @ Holmes'
p2172
sg4
I00
sg5
g6
sg7
S'2013-11-10'
p2173
sg9
S'2013-04-13'
p2174
sg11
S'2013-04-12'
p2175
sa(dp2176
g2
S"MAA Meeting w/ free Arby's - Noon @ Kep U1"
p2177
sg4
I00
sg5
g6
sg7
S'2013-11-10'
p2178
sg9
S'2013-04-12T13:00:00-05:00'
p2179
sg11
S'2013-04-12T12:00:00-05:00'
p2180
sa(dp2181
g2
S'Become a Foreign Exchange Trader - Noon @ Helmerich Hall'
p2182
sg4
I00
sg5
g6
sg7
S'2013-11-10'
p2183
sg9
S'2013-04-12T13:00:00-05:00'
p2184
sg11
S'2013-04-12T12:00:00-05:00'
p2185
sa(dp2186
g2
S'Russia Ex-Super-Power Lecture - 1p @ Collins Hall Heritage Room'
p2187
sg4
I00
sg5
g6
sg7
S'2013-11-10'
p2188
sg9
S'2013-04-12T13:45:00-05:00'
p2189
sg11
S'2013-04-12T12:45:00-05:00'
p2190
sa(dp2191
g2
S'Greek Carnival FUNdraiser - 5p @ New U'
p2192
sg4
I00
sg5
g6
sg7
S'2013-11-10'
p2193
sg9
S'2013-04-12T20:30:00-05:00'
p2194
sg11
S'2013-04-12T17:00:00-05:00'
p2195
sa(dp2196
g2
S'Worship at Wesley-7p @ Wesley'
p2197
sg4
I00
sg5
g6
sg7
S'2013-11-10'
p2198
sg9
S'2013-04-12T20:00:00-05:00'
p2199
sg11
S'2013-04-12T19:00:00-05:00'
p2200
sa(dp2201
g2
S'Spring Awakening - 8p @ Lorton PC'
p2202
sg4
I00
sg5
g6
sg7
S'2013-11-10'
p2203
sg9
S'2013-04-12T21:00:00-05:00'
p2204
sg11
S'2013-04-12T20:00:00-05:00'
p2205
sa(dp2206
g2
S'Tabletop Gaming Club - 2-6p @ The Caf'
p2207
sg4
I00
sg5
g6
sg7
S'2013-11-10'
p2208
sg9
S'2013-04-13T17:00:00-05:00'
p2209
sg11
S'2013-04-13T14:00:00-05:00'
p2210
sa(dp2211
g2
S'Alpha Phi Omega High Tea - 5p @ Mayo SAC'
p2212
sg4
I00
sg5
g6
sg7
S'2013-11-10'
p2213
sg9
S'2013-04-13T18:00:00-05:00'
p2214
sg11
S'2013-04-13T17:00:00-05:00'
p2215
sg23
S'Mayo Sac'
p2216
sa(dp2217
g2
S'SYR Formal - 7p @ Dresser Mansion'
p2218
sg4
I00
sg5
g6
sg7
S'2013-11-10'
p2219
sg9
S'2013-04-13T20:00:00-05:00'
p2220
sg11
S'2013-04-13T19:00:00-05:00'
p2221
sa(dp2222
g2
S'Newman Spring Dance -7p @ Mayo SAC'
p2223
sg4
I00
sg5
g6
sg7
S'2013-11-10'
p2224
sg9
S'2013-04-13T20:00:00-05:00'
p2225
sg11
S'2013-04-13T19:00:00-05:00'
p2226
sg23
S'Newman'
p2227
sa(dp2228
g2
S'Spring Awakening - 8p @ Lorton PC'
p2229
sg4
I00
sg5
g6
sg7
S'2013-11-10'
p2230
sg9
S'2013-04-13T21:00:00-05:00'
p2231
sg11
S'2013-04-13T20:00:00-05:00'
p2232
sa(dp2233
g2
S'Celtic Christianity Lecture and Lunch - 11a & 12:30p @ University United Methodist Church'
p2234
sg4
I00
sg5
g6
sg7
S'2013-11-10'
p2235
sg9
S'2013-04-14T13:30:00-05:00'
p2236
sg11
S'2013-04-14T12:30:00-05:00'
p2237
sa(dp2238
g2
S'Mass-11a & 8p @ Catholic Newman Center'
p2239
sg4
I00
sg5
g6
sg7
S'2013-11-10'
p2240
sg9
S'2013-04-14T21:00:00-05:00'
p2241
sg11
S'2013-04-14T20:00:00-05:00'
p2242
sa(dp2243
g2
S'Tax Day'
p2244
sg4
I00
sg5
g6
sg7
S'2013-11-10'
p2245
sg9
S'2013-04-16'
p2246
sg11
S'2013-04-15'
p2247
sa(dp2248
g2
S'CARS Good Morning Commuter Breakfast - 8a @ ACAC Commuter Lounge'
p2249
sg4
I00
sg5
g6
sg7
S'2013-11-10'
p2250
sg9
S'2013-04-15T10:00:00-05:00'
p2251
sg11
S'2013-04-15T08:00:00-05:00'
p2252
sg23
S'Acac'
p2253
sa(dp2254
g2
S'Free Lunch - 11am-1p @ BCM'
p2255
sg4
I00
sg5
g6
sg7
S'2013-11-10'
p2256
sg9
S'2013-04-15T13:00:00-05:00'
p2257
sg11
S'2013-04-15T11:00:00-05:00'
p2258
sa(dp2259
g2
S'Nurses Christian Fellowship Meeting - Noon @ Helmerich 105'
p2260
sg4
I00
sg5
g6
sg7
S'2013-11-10'
p2261
sg9
S'2013-04-15T13:00:00-05:00'
p2262
sg11
S'2013-04-15T12:00:00-05:00'
p2263
sa(dp2264
g2
S'Nacho Average -5p @ Delta Gamma House'
p2265
sg4
I00
sg5
g6
sg7
S'2013-11-10'
p2266
sg9
S'2013-04-15T20:00:00-05:00'
p2267
sg11
S'2013-04-15T17:00:00-05:00'
p2268
sg23
S'Delta Gamma'
p2269
sa(dp2270
g2
S'Tuesday Lunch - 11:30a-1p @ Catholic Newman Center'
p2271
sg4
I00
sg5
g6
sg7
S'2013-11-10'
p2272
sg9
S'2013-04-16T12:30:00-05:00'
p2273
sg11
S'2013-04-16T11:30:00-05:00'
p2274
sa(dp2275
g2
S'Cabinet Meeting - 5p @ ACAC'
p2276
sg4
I00
sg5
g6
sg7
S'2013-11-10'
p2277
sg9
S'2013-04-16T17:45:00-05:00'
p2278
sg11
S'2013-04-16T17:00:00-05:00'
p2279
sg23
S'ACAC '
p2280
sa(dp2281
g2
S"Professor McCoy's Wonderful World of Physics - 6:45p @ Kendall Hall Theater"
p2282
sg4
I00
sg5
g6
sg7
S'2013-11-10'
p2283
sg9
S'2013-04-16T19:45:00-05:00'
p2284
sg11
S'2013-04-16T18:45:00-05:00'
p2285
sa(dp2286
g2
S'RUF Exodus Study - 7:30p @ Tyrrell Hall'
p2287
sg4
I00
sg5
g6
sg7
S'2013-11-10'
p2288
sg9
S'2013-04-16T20:30:00-05:00'
p2289
sg11
S'2013-04-16T19:30:00-05:00'
p2290
sa(dp2291
g2
S'SA Senate Meeting - 9p @ John Rogers'
p2292
sg4
I00
sg5
g6
sg7
S'2013-11-10'
p2293
sg9
S'2013-04-16T22:00:00-05:00'
p2294
sg11
S'2013-04-16T21:00:00-05:00'
p2295
sa(dp2296
g2
S'Fellowship of Christian Athletes-9p @ Case Center'
p2297
sg4
I00
sg5
g6
sg7
S'2013-11-10'
p2298
sg9
S'2013-04-16T22:00:00-05:00'
p2299
sg11
S'2013-04-16T21:00:00-05:00'
p2300
sa(dp2301
g2
S'Tri Beta Lunch Meeting-Noon @ Oliphant Hall Rm 300'
p2302
sg4
I00
sg5
g6
sg7
S'2013-11-10'
p2303
sg9
S'2013-04-17T13:00:00-05:00'
p2304
sg11
S'2013-04-17T12:00:00-05:00'
p2305
sa(dp2306
g2
S'AAPG Meeting - Noon @ Kep M8'
p2307
sg4
I00
sg5
g6
sg7
S'2013-11-10'
p2308
sg9
S'2013-04-17T13:00:00-05:00'
p2309
sg11
S'2013-04-17T12:00:00-05:00'
p2310
sa(dp2311
g2
S'Veggie Lunch - Noon @ Little Blue House'
p2312
sg4
I00
sg5
g6
sg7
S'2013-11-10'
p2313
sg9
S'2013-04-17T13:00:00-05:00'
p2314
sg11
S'2013-04-17T12:00:00-05:00'
p2315
sa(dp2316
g2
S'English Corner Tutoring - 7:30p @ ACAC'
p2317
sg4
I00
sg5
g6
sg7
S'2013-11-10'
p2318
sg9
S'2013-04-17T16:30:00-05:00'
p2319
sg11
S'2013-04-17T15:30:00-05:00'
p2320
sa(dp2321
g2
S'Phi Eta Sigma Banquet - 5p @ ACAC'
p2322
sg4
I00
sg5
g6
sg7
S'2013-11-10'
p2323
sg9
S'2013-04-17T18:00:00-05:00'
p2324
sg11
S'2013-04-17T17:00:00-05:00'
p2325
sg23
S'Acac'
p2326
sa(dp2327
g2
S'Student Investment Group New Security Presentations - 6p @ Helmerich'
p2328
sg4
I00
sg5
g6
sg7
S'2013-11-10'
p2329
sg9
S'2013-04-17T19:00:00-05:00'
p2330
sg11
S'2013-04-17T18:00:00-05:00'
p2331
sa(dp2332
g2
S'Delta Gamma Lip Sync - 7p @ ACAC Great Hall A'
p2333
sg4
I00
sg5
g6
sg7
S'2013-11-10'
p2334
sg9
S'2013-04-17T20:00:00-05:00'
p2335
sg11
S'2013-04-17T19:00:00-05:00'
p2336
sg23
S'Acac Great Hall A'
p2337
sa(dp2338
g2
S'Free International Lunch-Noon @ Wesley'
p2339
sg4
I00
sg5
g6
sg7
S'2013-11-10'
p2340
sg9
S'2013-04-18T13:00:00-05:00'
p2341
sg11
S'2013-04-18T12:00:00-05:00'
p2342
sa(dp2343
g2
S'Orthodox Lenten Dinner - 4:55 meet at Lottie'
p2344
sg4
I00
sg5
g6
sg7
S'2013-11-10'
p2345
sg9
S'2013-04-18T15:30:00-05:00'
p2346
sg11
S'2013-04-18T14:30:00-05:00'
p2347
sa(dp2348
g2
S'Chi Alpha Friendship Feast-6p @ 1112 S Evanston'
p2349
sg4
I00
sg5
g6
sg7
S'2013-11-10'
p2350
sg9
S'2013-04-18T20:00:00-05:00'
p2351
sg11
S'2013-04-18T18:00:00-05:00'
p2352
sa(dp2353
g2
S'Invisible Disabilities Panel - 8p @ ACAC Gallery'
p2354
sg4
I00
sg5
g6
sg7
S'2013-11-10'
p2355
sg9
S'2013-04-18T21:00:00-05:00'
p2356
sg11
S'2013-04-18T20:00:00-05:00'
p2357
sa(dp2358
g2
S'Preview TU - Reynolds'
p2359
sg4
I00
sg5
g6
sg7
S'2013-11-10'
p2360
sg9
S'2013-04-20'
p2361
sg11
S'2013-04-19'
p2362
sa(dp2363
g2
S'ACM Meeting - Noon @ KEP U1'
p2364
sg4
I00
sg5
g6
sg7
S'2013-11-10'
p2365
sg9
S'2013-04-19T13:00:00-05:00'
p2366
sg11
S'2013-04-19T12:00:00-05:00'
p2367
sa(dp2368
g2
S'How to Train your dragon watch party - 8p @ 51 & Sheridan'
p2369
sg4
I00
sg5
g6
sg7
S'2013-11-10'
p2370
sg9
S'2013-04-19T19:30:00-05:00'
p2371
sg11
S'2013-04-19T18:00:00-05:00'
p2372
sa(dp2373
g2
S'Spiked Punch Lines Improv - 7p @ Mayo SAC'
p2374
sg4
I00
sg5
g6
sg7
S'2013-11-10'
p2375
sg9
S'2013-04-19T20:00:00-05:00'
p2376
sg11
S'2013-04-19T19:00:00-05:00'
p2377
sg23
S'Mayo Sac'
p2378
sa(dp2379
g2
S'Delta Gamma Anchor Splash -11a-3p @ Harwell Field'
p2380
sg4
I00
sg5
g6
sg7
S'2013-11-10'
p2381
sg9
S'2013-04-20T15:00:00-05:00'
p2382
sg11
S'2013-04-20T11:00:00-05:00'
p2383
sg23
S'Delta Gamma'
p2384
sa(dp2385
g2
S'Tabletop Gaming Club - 2-6p @ The Caf'
p2386
sg4
I00
sg5
g6
sg7
S'2013-11-10'
p2387
sg9
S'2013-04-20T17:00:00-05:00'
p2388
sg11
S'2013-04-20T14:00:00-05:00'
p2389
sa(dp2390
g2
S'Club Soccer Match vs OBU - 2p @ Harwell'
p2391
sg4
I00
sg5
g6
sg7
S'2013-11-10'
p2392
sg9
S'2013-04-20T15:00:00-05:00'
p2393
sg11
S'2013-04-20T14:00:00-05:00'
p2394
sa(dp2395
g2
S'Spiked Punch Lines Improv - 7p @ Mayo SAC'
p2396
sg4
I00
sg5
g6
sg7
S'2013-11-10'
p2397
sg9
S'2013-04-20T20:00:00-05:00'
p2398
sg11
S'2013-04-20T19:00:00-05:00'
p2399
sg23
S'Mayo Sac'
p2400
sa(dp2401
g2
S'Earth Sunday - 11a @ UMC'
p2402
sg4
I00
sg5
g6
sg7
S'2013-11-10'
p2403
sg9
S'2013-04-21T12:00:00-05:00'
p2404
sg11
S'2013-04-21T11:00:00-05:00'
p2405
sa(dp2406
g2
S'TU Treks Paintballing - 1p @ Paint Ball Land'
p2407
sg4
I00
sg5
g6
sg7
S'2013-11-10'
p2408
sg9
S'2013-04-21T14:00:00-05:00'
p2409
sg11
S'2013-04-21T13:00:00-05:00'
p2410
sa(dp2411
g2
S'Mass-11a & 8p @ Catholic Newman Center'
p2412
sg4
I00
sg5
g6
sg7
S'2013-11-10'
p2413
sg9
S'2013-04-21T21:00:00-05:00'
p2414
sg11
S'2013-04-21T20:00:00-05:00'
p2415
sa(dp2416
g2
S'Earth Day'
p2417
sg4
I00
sg5
g6
sg7
S'2013-11-10'
p2418
sg9
S'2013-04-23'
p2419
sg11
S'2013-04-22'
p2420
sa(dp2421
g2
S'Free Lunch - 11am-1p @ BCM'
p2422
sg4
I00
sg5
g6
sg7
S'2013-11-10'
p2423
sg9
S'2013-04-22T13:00:00-05:00'
p2424
sg11
S'2013-04-22T11:00:00-05:00'
p2425
sa(dp2426
g2
S'E-Waste Drive - 11a-4p @ New U'
p2427
sg4
I00
sg5
g6
sg7
S'2013-11-10'
p2428
sg9
S'2013-04-22T16:00:00-05:00'
p2429
sg11
S'2013-04-22T11:00:00-05:00'
p2430
sa(dp2431
g2
S'Earth Day - 11:30a-2:30p @ New U'
p2432
sg4
I00
sg5
g6
sg7
S'2013-11-10'
p2433
sg9
S'2013-04-22T14:30:00-05:00'
p2434
sg11
S'2013-04-22T11:30:00-05:00'
p2435
sa(dp2436
g2
S'TU Symphonic Winds-7:30p @ LPC'
p2437
sg4
I00
sg5
g6
sg7
S'2013-11-10'
p2438
sg9
S'2013-04-22T20:30:00-05:00'
p2439
sg11
S'2013-04-22T19:30:00-05:00'
p2440
sa(dp2441
g2
S'Tuesday Lunch - 11:30a-1p @ Catholic Newman Center'
p2442
sg4
I00
sg5
g6
sg7
S'2013-11-10'
p2443
sg9
S'2013-04-23T12:30:00-05:00'
p2444
sg11
S'2013-04-23T11:30:00-05:00'
p2445
sa(dp2446
g2
S'Aerial skills master class - 6p @ LPC Gussman Stage'
p2447
sg4
I00
sg5
g6
sg7
S'2013-11-10'
p2448
sg9
S'2013-04-23T15:00:00-05:00'
p2449
sg11
S'2013-04-23T14:00:00-05:00'
p2450
sa(dp2451
g2
S'Cabinet Meeting - 5p @ ACAC'
p2452
sg4
I00
sg5
g6
sg7
S'2013-11-10'
p2453
sg9
S'2013-04-23T17:45:00-05:00'
p2454
sg11
S'2013-04-23T17:00:00-05:00'
p2455
sg23
S'ACAC '
p2456
sa(dp2457
g2
S'RUF Exodus Study - 7:30p @ Tyrrell Hall'
p2458
sg4
I00
sg5
g6
sg7
S'2013-11-10'
p2459
sg9
S'2013-04-23T20:30:00-05:00'
p2460
sg11
S'2013-04-23T19:30:00-05:00'
p2461
sa(dp2462
g2
S'SA Senate Meeting - 9p @ John Rogers'
p2463
sg4
I00
sg5
g6
sg7
S'2013-11-10'
p2464
sg9
S'2013-04-23T22:00:00-05:00'
p2465
sg11
S'2013-04-23T21:00:00-05:00'
p2466
sa(dp2467
g2
S'Fellowship of Christian Athletes-9p @ Case Center'
p2468
sg4
I00
sg5
g6
sg7
S'2013-11-10'
p2469
sg9
S'2013-04-23T22:00:00-05:00'
p2470
sg11
S'2013-04-23T21:00:00-05:00'
p2471
sa(dp2472
g2
S'Veggie Lunch - Noon @ Little Blue House'
p2473
sg4
I00
sg5
g6
sg7
S'2013-11-10'
p2474
sg9
S'2013-04-24T13:00:00-05:00'
p2475
sg11
S'2013-04-24T12:00:00-05:00'
p2476
sa(dp2477
g2
S'English Corner Tutoring - 7:30p @ ACAC'
p2478
sg4
I00
sg5
g6
sg7
S'2013-11-10'
p2479
sg9
S'2013-04-24T16:30:00-05:00'
p2480
sg11
S'2013-04-24T15:30:00-05:00'
p2481
sa(dp2482
g2
S"TU's Finest Banquet - 5:45p @ Great Hall A"
p2483
sg4
I00
sg5
g6
sg7
S'2013-11-10'
p2484
sg9
S'2013-04-24T19:15:00-05:00'
p2485
sg11
S'2013-04-24T17:45:00-05:00'
p2486
sa(dp2487
g2
S'Freethinkers at TU Meeting - 6p @ ACAC'
p2488
sg4
I00
sg5
g6
sg7
S'2013-11-10'
p2489
sg9
S'2013-04-24T19:00:00-05:00'
p2490
sg11
S'2013-04-24T18:00:00-05:00'
p2491
sa(dp2492
g2
S'Free International Lunch-Noon @ Wesley'
p2493
sg4
I00
sg5
g6
sg7
S'2013-11-10'
p2494
sg9
S'2013-04-25T13:00:00-05:00'
p2495
sg11
S'2013-04-25T12:00:00-05:00'
p2496
sa(dp2497
g2
S'Chi Alpha Friendship Feast-6p @ 1112 S Evanston'
p2498
sg4
I00
sg5
g6
sg7
S'2013-11-10'
p2499
sg9
S'2013-04-25T20:00:00-05:00'
p2500
sg11
S'2013-04-25T18:00:00-05:00'
p2501
sa(dp2502
g2
S'Mortar Board Last Lecture - 7:30p @ ACAC Chouteau'
p2503
sg4
I00
sg5
g6
sg7
S'2013-11-10'
p2504
sg9
S'2013-04-25T20:15:00-05:00'
p2505
sg11
S'2013-04-25T19:15:00-05:00'
p2506
sa(dp2507
g2
S'Security and Exploits in Enterprise Systems - Noon @ Kep U1'
p2508
sg4
I00
sg5
g6
sg7
S'2013-11-10'
p2509
sg9
S'2013-04-26T13:00:00-05:00'
p2510
sg11
S'2013-04-26T12:00:00-05:00'
p2511
sg23
S'Enterprise Systems'
p2512
sa(dp2513
g2
S'Nurses Christian Fellowship Meeting - Noon @ Helmerich 105'
p2514
sg4
I00
sg5
g6
sg7
S'2013-11-10'
p2515
sg9
S'2013-04-26T13:00:00-05:00'
p2516
sg11
S'2013-04-26T12:00:00-05:00'
p2517
sa(dp2518
g2
S'TU Chorale and Cappella concert - 7:30p @ TUPAC'
p2519
sg4
I00
sg5
g6
sg7
S'2013-11-10'
p2520
sg9
S'2013-04-26T20:30:00-05:00'
p2521
sg11
S'2013-04-26T19:30:00-05:00'
p2522
sg23
S'Tupac'
p2523
sa(dp2524
g2
S"Men's Club Soccer - 2p @ Harwell"
p2525
sg4
I00
sg5
g6
sg7
S'2013-11-10'
p2526
sg9
S'2013-04-27T15:00:00-05:00'
p2527
sg11
S'2013-04-27T14:00:00-05:00'
p2528
sa(dp2529
g2
S'Tabletop Gaming Club - 2-6p @ The Caf'
p2530
sg4
I00
sg5
g6
sg7
S'2013-11-10'
p2531
sg9
S'2013-04-27T17:00:00-05:00'
p2532
sg11
S'2013-04-27T14:00:00-05:00'
p2533
sa(dp2534
g2
S'Mass-11a & 8p @ Catholic Newman Center'
p2535
sg4
I00
sg5
g6
sg7
S'2013-11-10'
p2536
sg9
S'2013-04-28T21:00:00-05:00'
p2537
sg11
S'2013-04-28T20:00:00-05:00'
p2538
sa(dp2539
g2
S'Last Day of Classes'
p2540
sg4
I00
sg5
g6
sg7
S'2013-11-10'
p2541
sg9
S'2013-04-30'
p2542
sg11
S'2013-04-29'
p2543
sa(dp2544
g2
S'Free Lunch - 11a-1p @ BCM'
p2545
sg4
I00
sg5
g6
sg7
S'2013-11-10'
p2546
sg9
S'2013-04-29T13:00:00-05:00'
p2547
sg11
S'2013-04-29T11:00:00-05:00'
p2548
sa(dp2549
g2
S"President's Concert-7:30p @ LPC"
p2550
sg4
I00
sg5
g6
sg7
S'2013-11-10'
p2551
sg9
S'2013-04-29T20:30:00-05:00'
p2552
sg11
S'2013-04-29T19:30:00-05:00'
p2553
sa(dp2554
g2
S'Reading Days'
p2555
sg4
I00
sg5
g6
sg7
S'2013-11-10'
p2556
sg9
S'2013-04-30T10:00:00-05:00'
p2557
sg11
S'2013-04-30T09:00:00-05:00'
p2558
sa(dp2559
g2
S'Free Taco Salad @ Catholic Newman Center'
p2560
sg4
I00
sg5
g6
sg7
S'2013-11-10'
p2561
sg9
S'2013-04-30T12:30:00-05:00'
p2562
sg11
S'2013-04-30T11:30:00-05:00'
p2563
sa(dp2564
g2
S'Psi Chi Induction Ceremony - Noon @ Mayo SAC'
p2565
sg4
I00
sg5
g6
sg7
S'2013-11-10'
p2566
sg9
S'2013-04-30T13:00:00-05:00'
p2567
sg11
S'2013-04-30T12:00:00-05:00'
p2568
sg23
S'Mayo Sac'
p2569
sa.